(dp0
I0
(lp1
S'a'
p2
ag2
aS'A'
p3
asI1
(lp4
g2
ag3
ag3
asI2
(lp5
g2
aS'i'
p6
aS'e'
p7
asI3
(lp8
g2
aS'I'
p9
ag7
asI4
(lp10
g2
aS'u'
p11
aS'o'
p12
asI5
(lp13
g2
aS'U'
p14
ag12
asI6
(lp15
g2
aS'f'
p16
aS'ar'
p17
asI7
(lp18
g2
ag16
aS'a f'
p19
asI8
(lp20
g2
aS'F'
p21
aS'ar'
p22
asI9
(lp23
g2
aS'x'
p24
aS'al'
p25
asI10
(lp26
g2
ag24
aS'a x'
p27
asI11
(lp28
g2
ag7
aS'E'
p29
asI12
(lp30
g2
ag29
ag29
asI13
(lp31
g2
ag12
aS'O'
p32
asI14
(lp33
g2
ag32
ag32
asI15
(lp34
g2
aS'k'
p35
aS'ak'
p36
asI16
(lp37
g2
aS'K'
p38
aS'aK'
p39
asI17
(lp40
g2
aS'g'
p41
aS'ag'
p42
asI18
(lp43
g2
aS'G'
p44
aS'aG'
p45
asI19
(lp46
g2
aS'N'
p47
aS'aN'
p48
asI20
(lp49
g2
aS'c'
p50
aS'ac'
p51
asI21
(lp52
g2
aS'C'
p53
aS'acC'
p54
asI22
(lp55
g2
aS'j'
p56
aS'aj'
p57
asI23
(lp58
g2
aS'J'
p59
aS'aJ'
p60
asI24
(lp61
g2
aS'Y'
p62
aS'aY'
p63
asI25
(lp64
g2
aS'w'
p65
aS'aw'
p66
asI26
(lp67
g2
aS'W'
p68
aS'aW'
p69
asI27
(lp70
g2
aS'q'
p71
aS'aq'
p72
asI28
(lp73
g2
aS'Q'
p74
aS'aQ'
p75
asI29
(lp76
g2
aS'R'
p77
aS'aR'
p78
asI30
(lp79
g2
aS't'
p80
aS'at'
p81
asI31
(lp82
g2
aS'T'
p83
aS'aT'
p84
asI32
(lp85
g2
aS'd'
p86
aS'ad'
p87
asI33
(lp88
g2
aS'D'
p89
aS'aD'
p90
asI34
(lp91
g2
aS'n'
p92
aS'an'
p93
asI35
(lp94
g2
aS'p'
p95
aS'ap'
p96
asI36
(lp97
g2
aS'P'
p98
aS'aP'
p99
asI37
(lp100
g2
aS'b'
p101
aS'ab'
p102
asI38
(lp103
g2
aS'B'
p104
aS'aB'
p105
asI39
(lp106
g2
aS'm'
p107
aS'am'
p108
asI40
(lp109
g2
aS'y'
p110
aS'ay'
p111
asI41
(lp112
g2
aS'r'
p113
aS'ar'
p114
asI42
(lp115
g2
aS'l'
p116
aS'al'
p117
asI43
(lp118
g2
aS'v'
p119
aS'av'
p120
asI44
(lp121
g2
aS'S'
p122
aS'aS'
p123
asI45
(lp124
g2
aS'z'
p125
aS'az'
p126
asI46
(lp127
g2
aS's'
p128
aS'as'
p129
asI47
(lp130
g2
aS'h'
p131
aS'ah'
p132
asI48
(lp133
g3
ag2
ag3
asI49
(lp134
g3
ag3
ag3
asI50
(lp135
g3
ag6
ag7
asI51
(lp136
g3
ag9
ag7
asI52
(lp137
g3
ag11
ag12
asI53
(lp138
g3
ag14
ag12
asI54
(lp139
g3
ag16
aS'ar'
p140
asI55
(lp141
g3
ag16
aS'a f'
p142
asI56
(lp143
g3
ag21
aS'ar'
p144
asI57
(lp145
g3
ag24
aS'al'
p146
asI58
(lp147
g3
ag24
aS'A x'
p148
asI59
(lp149
g3
ag7
ag29
asI60
(lp150
g3
ag29
ag29
asI61
(lp151
g3
ag12
ag32
asI62
(lp152
g3
ag32
ag32
asI63
(lp153
g3
ag35
aS'Ak'
p154
asI64
(lp155
g3
ag38
aS'AK'
p156
asI65
(lp157
g3
ag41
aS'Ag'
p158
asI66
(lp159
g3
ag44
aS'AG'
p160
asI67
(lp161
g3
ag47
aS'AN'
p162
asI68
(lp163
g3
ag50
aS'Ac'
p164
asI69
(lp165
g3
ag53
aS'AC'
p166
asI70
(lp167
g3
ag53
aS'AcC'
p168
asI71
(lp169
g3
ag56
aS'Aj'
p170
asI72
(lp171
g3
ag59
aS'AJ'
p172
asI73
(lp173
g3
ag62
aS'AY'
p174
asI74
(lp175
g3
ag65
aS'Aw'
p176
asI75
(lp177
g3
ag68
aS'AW'
p178
asI76
(lp179
g3
ag71
aS'Aq'
p180
asI77
(lp181
g3
ag74
aS'AQ'
p182
asI78
(lp183
g3
ag77
aS'AR'
p184
asI79
(lp185
g3
ag80
aS'At'
p186
asI80
(lp187
g3
ag83
aS'AT'
p188
asI81
(lp189
g3
ag86
aS'Ad'
p190
asI82
(lp191
g3
ag89
aS'AD'
p192
asI83
(lp193
g3
ag92
aS'An'
p194
asI84
(lp195
g3
ag95
aS'Ap'
p196
asI85
(lp197
g3
ag98
aS'AP'
p198
asI86
(lp199
g3
ag101
aS'Ab'
p200
asI87
(lp201
g3
ag104
aS'AB'
p202
asI88
(lp203
g3
ag107
aS'Am'
p204
asI89
(lp205
g3
ag110
aS'Ay'
p206
asI90
(lp207
g3
ag113
aS'Ar'
p208
asI91
(lp209
g3
ag116
aS'Al'
p210
asI92
(lp211
g3
ag119
aS'Av'
p212
asI93
(lp213
g3
ag122
aS'AS'
p214
asI94
(lp215
g3
ag125
aS'Az'
p216
asI95
(lp217
g3
ag128
aS'As'
p218
asI96
(lp219
g3
ag131
aS'Ah'
p220
asI97
(lp221
g6
ag2
aS'ya'
p222
asI98
(lp223
g6
ag3
aS'yA'
p224
asI99
(lp225
g6
ag6
ag9
asI100
(lp226
g6
ag9
ag9
asI101
(lp227
g6
ag11
aS'yu'
p228
asI102
(lp229
g6
ag14
aS'yU'
p230
asI103
(lp231
g6
ag16
aS'yf'
p232
asI104
(lp233
g6
ag16
aS'i f'
p234
asI105
(lp235
g6
ag21
aS'yF'
p236
asI106
(lp237
g6
ag24
aS'yx'
p238
asI107
(lp239
g6
ag24
aS'i x'
p240
asI108
(lp241
g6
ag7
aS'ye'
p242
asI109
(lp243
g6
ag29
aS'yE'
p244
asI110
(lp245
g6
ag12
aS'yo'
p246
asI111
(lp247
g6
ag32
aS'yO'
p248
asI112
(lp249
g6
ag35
aS'ik'
p250
asI113
(lp251
g6
ag38
aS'iK'
p252
asI114
(lp253
g6
ag41
aS'ig'
p254
asI115
(lp255
g6
ag44
aS'iG'
p256
asI116
(lp257
g6
ag47
aS'iN'
p258
asI117
(lp259
g6
ag50
aS'ic'
p260
asI118
(lp261
g6
ag53
aS'icC'
p262
asI119
(lp263
g6
ag56
aS'ij'
p264
asI120
(lp265
g6
ag59
aS'iJ'
p266
asI121
(lp267
g6
ag62
aS'iY'
p268
asI122
(lp269
g6
ag65
aS'iw'
p270
asI123
(lp271
g6
ag68
aS'iW'
p272
asI124
(lp273
g6
ag71
aS'iq'
p274
asI125
(lp275
g6
ag74
aS'iQ'
p276
asI126
(lp277
g6
ag77
aS'iR'
p278
asI127
(lp279
g6
ag80
aS'it'
p280
asI128
(lp281
g6
ag83
aS'iT'
p282
asI129
(lp283
g6
ag86
aS'id'
p284
asI130
(lp285
g6
ag89
aS'iD'
p286
asI131
(lp287
g6
ag92
aS'in'
p288
asI132
(lp289
g6
ag95
aS'ip'
p290
asI133
(lp291
g6
ag98
aS'iP'
p292
asI134
(lp293
g6
ag101
aS'ib'
p294
asI135
(lp295
g6
ag104
aS'iB'
p296
asI136
(lp297
g6
ag107
aS'im'
p298
asI137
(lp299
g6
ag110
aS'iy'
p300
asI138
(lp301
g6
ag113
aS'ir'
p302
asI139
(lp303
g6
ag116
aS'il'
p304
asI140
(lp305
g6
ag119
aS'iv'
p306
asI141
(lp307
g6
ag122
aS'iS'
p308
asI142
(lp309
g6
ag125
aS'iz'
p310
asI143
(lp311
g6
ag128
aS'is'
p312
asI144
(lp313
g6
ag131
aS'ih'
p314
asI145
(lp315
g9
ag2
aS'ya'
p316
asI146
(lp317
g9
ag2
aS'i a'
p318
asI147
(lp319
g9
ag3
aS'yA'
p320
asI148
(lp321
g9
ag3
aS'i A'
p322
asI149
(lp323
g9
ag6
ag9
asI150
(lp324
g9
ag9
ag9
asI151
(lp325
g9
ag11
aS'yu'
p326
asI152
(lp327
g9
ag11
aS'i u'
p328
asI153
(lp329
g9
ag14
aS'yU'
p330
asI154
(lp331
g9
ag14
aS'i U'
p332
asI155
(lp333
g9
ag16
aS'yf'
p334
asI156
(lp335
g9
ag16
aS'i f'
p336
asI157
(lp337
g9
ag21
aS'yF'
p338
asI158
(lp339
g9
ag21
aS'i F'
p340
asI159
(lp341
g9
ag24
aS'yx'
p342
asI160
(lp343
g9
ag24
aS'i x'
p344
asI161
(lp345
g9
ag7
aS'ye'
p346
asI162
(lp347
g9
ag7
aS'i e'
p348
asI163
(lp349
g9
ag29
aS'yE'
p350
asI164
(lp351
g9
ag29
aS'i E'
p352
asI165
(lp353
g9
ag12
aS'yo'
p354
asI166
(lp355
g9
ag12
aS'i o'
p356
asI167
(lp357
g9
ag32
aS'yO'
p358
asI168
(lp359
g9
ag32
aS'i O'
p360
asI169
(lp361
g9
ag35
aS'Ik'
p362
asI170
(lp363
g9
ag38
aS'IK'
p364
asI171
(lp365
g9
ag41
aS'Ig'
p366
asI172
(lp367
g9
ag44
aS'IG'
p368
asI173
(lp369
g9
ag47
aS'IN'
p370
asI174
(lp371
g9
ag50
aS'Ic'
p372
asI175
(lp373
g9
ag53
aS'IcC'
p374
asI176
(lp375
g9
ag53
aS'IC'
p376
asI177
(lp377
g9
ag56
aS'Ij'
p378
asI178
(lp379
g9
ag59
aS'IJ'
p380
asI179
(lp381
g9
ag62
aS'IY'
p382
asI180
(lp383
g9
ag65
aS'Iw'
p384
asI181
(lp385
g9
ag68
aS'IW'
p386
asI182
(lp387
g9
ag71
aS'Iq'
p388
asI183
(lp389
g9
ag74
aS'IQ'
p390
asI184
(lp391
g9
ag77
aS'IR'
p392
asI185
(lp393
g9
ag80
aS'It'
p394
asI186
(lp395
g9
ag83
aS'IT'
p396
asI187
(lp397
g9
ag86
aS'Id'
p398
asI188
(lp399
g9
ag89
aS'ID'
p400
asI189
(lp401
g9
ag92
aS'In'
p402
asI190
(lp403
g9
ag95
aS'Ip'
p404
asI191
(lp405
g9
ag98
aS'IP'
p406
asI192
(lp407
g9
ag101
aS'Ib'
p408
asI193
(lp409
g9
ag104
aS'IB'
p410
asI194
(lp411
g9
ag107
aS'Im'
p412
asI195
(lp413
g9
ag110
aS'Iy'
p414
asI196
(lp415
g9
ag113
aS'Ir'
p416
asI197
(lp417
g9
ag116
aS'Il'
p418
asI198
(lp419
g9
ag119
aS'Iv'
p420
asI199
(lp421
g9
ag122
aS'IS'
p422
asI200
(lp423
g9
ag125
aS'Iz'
p424
asI201
(lp425
g9
ag128
aS'Is'
p426
asI202
(lp427
g9
ag131
aS'Ih'
p428
asI203
(lp429
g11
ag2
aS'va'
p430
asI204
(lp431
g11
ag3
aS'vA'
p432
asI205
(lp433
g11
ag6
aS'vi'
p434
asI206
(lp435
g11
ag9
aS'vI'
p436
asI207
(lp437
g11
ag11
ag14
asI208
(lp438
g11
ag14
ag14
asI209
(lp439
g11
ag16
aS'vf'
p440
asI210
(lp441
g11
ag16
aS'u f'
p442
asI211
(lp443
g11
ag21
aS'vF'
p444
asI212
(lp445
g11
ag24
aS'vx'
p446
asI213
(lp447
g11
ag24
aS'u x'
p448
asI214
(lp449
g11
ag7
aS've'
p450
asI215
(lp451
g11
ag29
aS'vE'
p452
asI216
(lp453
g11
ag12
aS'vo'
p454
asI217
(lp455
g11
ag32
aS'vO'
p456
asI218
(lp457
g11
ag35
aS'uk'
p458
asI219
(lp459
g11
ag38
aS'uK'
p460
asI220
(lp461
g11
ag41
aS'ug'
p462
asI221
(lp463
g11
ag44
aS'uG'
p464
asI222
(lp465
g11
ag47
aS'uN'
p466
asI223
(lp467
g11
ag50
aS'uc'
p468
asI224
(lp469
g11
ag53
aS'ucC'
p470
asI225
(lp471
g11
ag56
aS'uj'
p472
asI226
(lp473
g11
ag59
aS'uJ'
p474
asI227
(lp475
g11
ag62
aS'uY'
p476
asI228
(lp477
g11
ag65
aS'uw'
p478
asI229
(lp479
g11
ag68
aS'uW'
p480
asI230
(lp481
g11
ag71
aS'uq'
p482
asI231
(lp483
g11
ag74
aS'uQ'
p484
asI232
(lp485
g11
ag77
aS'uR'
p486
asI233
(lp487
g11
ag80
aS'ut'
p488
asI234
(lp489
g11
ag83
aS'uT'
p490
asI235
(lp491
g11
ag86
aS'ud'
p492
asI236
(lp493
g11
ag89
aS'uD'
p494
asI237
(lp495
g11
ag92
aS'un'
p496
asI238
(lp497
g11
ag95
aS'up'
p498
asI239
(lp499
g11
ag98
aS'uP'
p500
asI240
(lp501
g11
ag101
aS'ub'
p502
asI241
(lp503
g11
ag104
aS'uB'
p504
asI242
(lp505
g11
ag107
aS'um'
p506
asI243
(lp507
g11
ag110
aS'uy'
p508
asI244
(lp509
g11
ag113
aS'ur'
p510
asI245
(lp511
g11
ag116
aS'ul'
p512
asI246
(lp513
g11
ag119
aS'uv'
p514
asI247
(lp515
g11
ag122
aS'uS'
p516
asI248
(lp517
g11
ag125
aS'uz'
p518
asI249
(lp519
g11
ag128
aS'us'
p520
asI250
(lp521
g11
ag131
aS'uh'
p522
asI251
(lp523
g14
ag2
aS'va'
p524
asI252
(lp525
g14
ag2
aS'u a'
p526
asI253
(lp527
g14
ag3
aS'vA'
p528
asI254
(lp529
g14
ag3
aS'u A'
p530
asI255
(lp531
g14
ag6
aS'vi'
p532
asI256
(lp533
g14
ag6
aS'u i'
p534
asI257
(lp535
g14
ag9
aS'vI'
p536
asI258
(lp537
g14
ag9
aS'u I'
p538
asI259
(lp539
g14
ag11
ag14
asI260
(lp540
g14
ag14
ag14
asI261
(lp541
g14
ag16
aS'vf'
p542
asI262
(lp543
g14
ag16
aS'u f'
p544
asI263
(lp545
g14
ag21
aS'vF'
p546
asI264
(lp547
g14
ag21
aS'u F'
p548
asI265
(lp549
g14
ag24
aS'vx'
p550
asI266
(lp551
g14
ag24
aS'u x'
p552
asI267
(lp553
g14
ag7
aS've'
p554
asI268
(lp555
g14
ag7
aS'u e'
p556
asI269
(lp557
g14
ag29
aS'vE'
p558
asI270
(lp559
g14
ag29
aS'u E'
p560
asI271
(lp561
g14
ag12
aS'vo'
p562
asI272
(lp563
g14
ag12
aS'u o'
p564
asI273
(lp565
g14
ag32
aS'vO'
p566
asI274
(lp567
g14
ag32
aS'u O'
p568
asI275
(lp569
g14
ag35
aS'Uk'
p570
asI276
(lp571
g14
ag38
aS'UK'
p572
asI277
(lp573
g14
ag41
aS'Ug'
p574
asI278
(lp575
g14
ag44
aS'UG'
p576
asI279
(lp577
g14
ag47
aS'UN'
p578
asI280
(lp579
g14
ag50
aS'Uc'
p580
asI281
(lp581
g14
ag53
aS'UcC'
p582
asI282
(lp583
g14
ag53
aS'UC'
p584
asI283
(lp585
g14
ag56
aS'Uj'
p586
asI284
(lp587
g14
ag59
aS'UJ'
p588
asI285
(lp589
g14
ag62
aS'UY'
p590
asI286
(lp591
g14
ag65
aS'Uw'
p592
asI287
(lp593
g14
ag68
aS'UW'
p594
asI288
(lp595
g14
ag71
aS'Uq'
p596
asI289
(lp597
g14
ag74
aS'UQ'
p598
asI290
(lp599
g14
ag77
aS'UR'
p600
asI291
(lp601
g14
ag80
aS'Ut'
p602
asI292
(lp603
g14
ag83
aS'UT'
p604
asI293
(lp605
g14
ag86
aS'Ud'
p606
asI294
(lp607
g14
ag89
aS'UD'
p608
asI295
(lp609
g14
ag92
aS'Un'
p610
asI296
(lp611
g14
ag95
aS'Up'
p612
asI297
(lp613
g14
ag98
aS'UP'
p614
asI298
(lp615
g14
ag101
aS'Ub'
p616
asI299
(lp617
g14
ag104
aS'UB'
p618
asI300
(lp619
g14
ag107
aS'Um'
p620
asI301
(lp621
g14
ag110
aS'Uy'
p622
asI302
(lp623
g14
ag113
aS'Ur'
p624
asI303
(lp625
g14
ag116
aS'Ul'
p626
asI304
(lp627
g14
ag119
aS'Uv'
p628
asI305
(lp629
g14
ag122
aS'US'
p630
asI306
(lp631
g14
ag125
aS'Uz'
p632
asI307
(lp633
g14
ag128
aS'Us'
p634
asI308
(lp635
g14
ag131
aS'Uh'
p636
asI309
(lp637
g16
ag2
aS'ra'
p638
asI310
(lp639
g16
ag3
aS'rA'
p640
asI311
(lp641
g16
ag6
aS'ri'
p642
asI312
(lp643
g16
ag9
aS'rI'
p644
asI313
(lp645
g16
ag11
aS'ru'
p646
asI314
(lp647
g16
ag14
aS'rU'
p648
asI315
(lp649
g16
ag16
ag16
asI316
(lp650
g16
ag16
ag21
asI317
(lp651
g16
ag16
aS'f f'
p652
asI318
(lp653
g16
ag21
ag21
asI319
(lp654
g16
ag24
ag24
asI320
(lp655
g16
ag24
ag21
asI321
(lp656
g16
ag24
aS'f x'
p657
asI322
(lp658
g16
ag7
aS're'
p659
asI323
(lp660
g16
ag29
aS'rE'
p661
asI324
(lp662
g16
ag12
aS'ro'
p663
asI325
(lp664
g16
ag32
aS'rO'
p665
asI326
(lp666
g16
ag35
aS'fk'
p667
asI327
(lp668
g16
ag38
aS'fK'
p669
asI328
(lp670
g16
ag41
aS'fg'
p671
asI329
(lp672
g16
ag44
aS'fG'
p673
asI330
(lp674
g16
ag47
aS'fN'
p675
asI331
(lp676
g16
ag50
aS'fc'
p677
asI332
(lp678
g16
ag53
aS'fcC'
p679
asI333
(lp680
g16
ag56
aS'fj'
p681
asI334
(lp682
g16
ag59
aS'fJ'
p683
asI335
(lp684
g16
ag62
aS'fY'
p685
asI336
(lp686
g16
ag65
aS'fw'
p687
asI337
(lp688
g16
ag68
aS'fW'
p689
asI338
(lp690
g16
ag71
aS'fq'
p691
asI339
(lp692
g16
ag74
aS'fQ'
p693
asI340
(lp694
g16
ag77
aS'fR'
p695
asI341
(lp696
g16
ag80
aS'ft'
p697
asI342
(lp698
g16
ag83
aS'fT'
p699
asI343
(lp700
g16
ag86
aS'fd'
p701
asI344
(lp702
g16
ag89
aS'fD'
p703
asI345
(lp704
g16
ag92
aS'fn'
p705
asI346
(lp706
g16
ag95
aS'fp'
p707
asI347
(lp708
g16
ag98
aS'fP'
p709
asI348
(lp710
g16
ag101
aS'fb'
p711
asI349
(lp712
g16
ag104
aS'fB'
p713
asI350
(lp714
g16
ag107
aS'fm'
p715
asI351
(lp716
g16
ag110
aS'fy'
p717
asI352
(lp718
g16
ag113
aS'fr'
p719
asI353
(lp720
g16
ag116
aS'fl'
p721
asI354
(lp722
g16
ag119
aS'fv'
p723
asI355
(lp724
g16
ag122
aS'fS'
p725
asI356
(lp726
g16
ag125
aS'fz'
p727
asI357
(lp728
g16
ag128
aS'fs'
p729
asI358
(lp730
g16
ag131
aS'fh'
p731
asI359
(lp732
g21
ag2
aS'ra'
p733
asI360
(lp734
g21
ag2
aS'f a'
p735
asI361
(lp736
g21
ag3
aS'rA'
p737
asI362
(lp738
g21
ag3
aS'f A'
p739
asI363
(lp740
g21
ag6
aS'ri'
p741
asI364
(lp742
g21
ag6
aS'f i'
p743
asI365
(lp744
g21
ag9
aS'rI'
p745
asI366
(lp746
g21
ag9
aS'f I'
p747
asI367
(lp748
g21
ag11
aS'ru'
p749
asI368
(lp750
g21
ag11
aS'f u'
p751
asI369
(lp752
g21
ag14
aS'rU'
p753
asI370
(lp754
g21
ag14
aS'f U'
p755
asI371
(lp756
g21
ag16
ag21
asI372
(lp757
g21
ag16
ag16
asI373
(lp758
g21
ag16
aS'f f'
p759
asI374
(lp760
g21
ag21
ag21
asI375
(lp761
g21
ag24
ag21
asI376
(lp762
g21
ag24
aS'f x'
p763
asI377
(lp764
g21
ag24
ag24
asI378
(lp765
g21
ag7
aS're'
p766
asI379
(lp767
g21
ag7
aS'f e'
p768
asI380
(lp769
g21
ag29
aS'rE'
p770
asI381
(lp771
g21
ag29
aS'f E'
p772
asI382
(lp773
g21
ag12
aS'ro'
p774
asI383
(lp775
g21
ag12
aS'f o'
p776
asI384
(lp777
g21
ag32
aS'rO'
p778
asI385
(lp779
g21
ag32
aS'f O'
p780
asI386
(lp781
g21
ag35
aS'Fk'
p782
asI387
(lp783
g21
ag38
aS'FK'
p784
asI388
(lp785
g21
ag41
aS'Fg'
p786
asI389
(lp787
g21
ag44
aS'FG'
p788
asI390
(lp789
g21
ag47
aS'FN'
p790
asI391
(lp791
g21
ag50
aS'Fc'
p792
asI392
(lp793
g21
ag53
aS'FcC'
p794
asI393
(lp795
g21
ag53
aS'FC'
p796
asI394
(lp797
g21
ag56
aS'Fj'
p798
asI395
(lp799
g21
ag59
aS'FJ'
p800
asI396
(lp801
g21
ag62
aS'FY'
p802
asI397
(lp803
g21
ag65
aS'Fw'
p804
asI398
(lp805
g21
ag68
aS'FW'
p806
asI399
(lp807
g21
ag71
aS'Fq'
p808
asI400
(lp809
g21
ag74
aS'FQ'
p810
asI401
(lp811
g21
ag77
aS'FR'
p812
asI402
(lp813
g21
ag80
aS'Ft'
p814
asI403
(lp815
g21
ag83
aS'FT'
p816
asI404
(lp817
g21
ag86
aS'Fd'
p818
asI405
(lp819
g21
ag89
aS'FD'
p820
asI406
(lp821
g21
ag92
aS'Fn'
p822
asI407
(lp823
g21
ag95
aS'Fp'
p824
asI408
(lp825
g21
ag98
aS'FP'
p826
asI409
(lp827
g21
ag101
aS'Fb'
p828
asI410
(lp829
g21
ag104
aS'FB'
p830
asI411
(lp831
g21
ag107
aS'Fm'
p832
asI412
(lp833
g21
ag110
aS'Fy'
p834
asI413
(lp835
g21
ag113
aS'Fr'
p836
asI414
(lp837
g21
ag116
aS'Fl'
p838
asI415
(lp839
g21
ag119
aS'Fv'
p840
asI416
(lp841
g21
ag122
aS'FS'
p842
asI417
(lp843
g21
ag125
aS'Fz'
p844
asI418
(lp845
g21
ag128
aS'Fs'
p846
asI419
(lp847
g21
ag131
aS'Fh'
p848
asI420
(lp849
g24
ag2
aS'la'
p850
asI421
(lp851
g24
ag3
aS'lA'
p852
asI422
(lp853
g24
ag6
aS'li'
p854
asI423
(lp855
g24
ag9
aS'lI'
p856
asI424
(lp857
g24
ag11
aS'lu'
p858
asI425
(lp859
g24
ag14
aS'lU'
p860
asI426
(lp861
g24
ag16
ag16
asI427
(lp862
g24
ag16
ag21
asI428
(lp863
g24
ag16
aS'x f'
p864
asI429
(lp865
g24
ag21
ag21
asI430
(lp866
g24
ag24
ag24
asI431
(lp867
g24
ag24
ag21
asI432
(lp868
g24
ag24
aS'x x'
p869
asI433
(lp870
g24
ag7
aS'le'
p871
asI434
(lp872
g24
ag29
aS'lE'
p873
asI435
(lp874
g24
ag12
aS'lo'
p875
asI436
(lp876
g24
ag32
aS'lO'
p877
asI437
(lp878
g24
ag35
aS'xk'
p879
asI438
(lp880
g24
ag38
aS'xK'
p881
asI439
(lp882
g24
ag41
aS'xg'
p883
asI440
(lp884
g24
ag44
aS'xG'
p885
asI441
(lp886
g24
ag47
aS'xN'
p887
asI442
(lp888
g24
ag50
aS'xc'
p889
asI443
(lp890
g24
ag53
aS'xcC'
p891
asI444
(lp892
g24
ag56
aS'xj'
p893
asI445
(lp894
g24
ag59
aS'xJ'
p895
asI446
(lp896
g24
ag62
aS'xY'
p897
asI447
(lp898
g24
ag65
aS'xw'
p899
asI448
(lp900
g24
ag68
aS'xW'
p901
asI449
(lp902
g24
ag71
aS'xq'
p903
asI450
(lp904
g24
ag74
aS'xQ'
p905
asI451
(lp906
g24
ag77
aS'xR'
p907
asI452
(lp908
g24
ag80
aS'xt'
p909
asI453
(lp910
g24
ag83
aS'xT'
p911
asI454
(lp912
g24
ag86
aS'xd'
p913
asI455
(lp914
g24
ag89
aS'xD'
p915
asI456
(lp916
g24
ag92
aS'xn'
p917
asI457
(lp918
g24
ag95
aS'xp'
p919
asI458
(lp920
g24
ag98
aS'xP'
p921
asI459
(lp922
g24
ag101
aS'xb'
p923
asI460
(lp924
g24
ag104
aS'xB'
p925
asI461
(lp926
g24
ag107
aS'xm'
p927
asI462
(lp928
g24
ag110
aS'xy'
p929
asI463
(lp930
g24
ag113
aS'xr'
p931
asI464
(lp932
g24
ag116
aS'xl'
p933
asI465
(lp934
g24
ag119
aS'xv'
p935
asI466
(lp936
g24
ag122
aS'xS'
p937
asI467
(lp938
g24
ag125
aS'xz'
p939
asI468
(lp940
g24
ag128
aS'xs'
p941
asI469
(lp942
g24
ag131
aS'xh'
p943
asI470
(lp944
g7
ag2
aS"e'"
p945
asI471
(lp946
g7
ag3
aS'ayA'
p947
asI472
(lp948
g7
ag3
aS'a A'
p949
asI473
(lp950
g7
ag6
aS'ayi'
p951
asI474
(lp952
g7
ag6
aS'a i'
p953
asI475
(lp954
g7
ag9
aS'ayI'
p955
asI476
(lp956
g7
ag9
aS'a I'
p957
asI477
(lp958
g7
ag11
aS'ayu'
p959
asI478
(lp960
g7
ag11
aS'a u'
p961
asI479
(lp962
g7
ag14
aS'ayU'
p963
asI480
(lp964
g7
ag14
aS'a U'
p965
asI481
(lp966
g7
ag16
aS'ayf'
p967
asI482
(lp968
g7
ag16
aS'a f'
p969
asI483
(lp970
g7
ag21
aS'ayF'
p971
asI484
(lp972
g7
ag21
aS'a F'
p973
asI485
(lp974
g7
ag24
aS'ayx'
p975
asI486
(lp976
g7
ag24
aS'a x'
p977
asI487
(lp978
g7
ag7
aS'aye'
p979
asI488
(lp980
g7
ag7
aS'a e'
p981
asI489
(lp982
g7
ag29
aS'ayE'
p983
asI490
(lp984
g7
ag29
aS'a E'
p985
asI491
(lp986
g7
ag12
aS'ayo'
p987
asI492
(lp988
g7
ag12
aS'a o'
p989
asI493
(lp990
g7
ag32
aS'ayO'
p991
asI494
(lp992
g7
ag32
aS'a O'
p993
asI495
(lp994
g7
ag35
aS'ek'
p995
asI496
(lp996
g7
ag38
aS'eK'
p997
asI497
(lp998
g7
ag41
aS'eg'
p999
asI498
(lp1000
g7
ag44
aS'eG'
p1001
asI499
(lp1002
g7
ag47
aS'eN'
p1003
asI500
(lp1004
g7
ag50
aS'ec'
p1005
asI501
(lp1006
g7
ag53
aS'ecC'
p1007
asI502
(lp1008
g7
ag53
aS'eC'
p1009
asI503
(lp1010
g7
ag56
aS'ej'
p1011
asI504
(lp1012
g7
ag59
aS'eJ'
p1013
asI505
(lp1014
g7
ag62
aS'eY'
p1015
asI506
(lp1016
g7
ag65
aS'ew'
p1017
asI507
(lp1018
g7
ag68
aS'eW'
p1019
asI508
(lp1020
g7
ag71
aS'eq'
p1021
asI509
(lp1022
g7
ag74
aS'eQ'
p1023
asI510
(lp1024
g7
ag77
aS'eR'
p1025
asI511
(lp1026
g7
ag80
aS'et'
p1027
asI512
(lp1028
g7
ag83
aS'eT'
p1029
asI513
(lp1030
g7
ag86
aS'ed'
p1031
asI514
(lp1032
g7
ag89
aS'eD'
p1033
asI515
(lp1034
g7
ag92
aS'en'
p1035
asI516
(lp1036
g7
ag95
aS'ep'
p1037
asI517
(lp1038
g7
ag98
aS'eP'
p1039
asI518
(lp1040
g7
ag101
aS'eb'
p1041
asI519
(lp1042
g7
ag104
aS'eB'
p1043
asI520
(lp1044
g7
ag107
aS'em'
p1045
asI521
(lp1046
g7
ag110
aS'ey'
p1047
asI522
(lp1048
g7
ag113
aS'er'
p1049
asI523
(lp1050
g7
ag116
aS'el'
p1051
asI524
(lp1052
g7
ag119
aS'ev'
p1053
asI525
(lp1054
g7
ag122
aS'eS'
p1055
asI526
(lp1056
g7
ag125
aS'ez'
p1057
asI527
(lp1058
g7
ag128
aS'es'
p1059
asI528
(lp1060
g7
ag131
aS'eh'
p1061
asI529
(lp1062
g29
ag2
aS'Aya'
p1063
asI530
(lp1064
g29
ag2
aS'A a'
p1065
asI531
(lp1066
g29
ag3
aS'AyA'
p1067
asI532
(lp1068
g29
ag3
aS'A A'
p1069
asI533
(lp1070
g29
ag6
aS'Ayi'
p1071
asI534
(lp1072
g29
ag6
aS'A i'
p1073
asI535
(lp1074
g29
ag9
aS'AyI'
p1075
asI536
(lp1076
g29
ag9
aS'A I'
p1077
asI537
(lp1078
g29
ag11
aS'Ayu'
p1079
asI538
(lp1080
g29
ag11
aS'A u'
p1081
asI539
(lp1082
g29
ag14
aS'AyU'
p1083
asI540
(lp1084
g29
ag14
aS'A U'
p1085
asI541
(lp1086
g29
ag16
aS'Ayf'
p1087
asI542
(lp1088
g29
ag16
aS'A f'
p1089
asI543
(lp1090
g29
ag21
aS'AyF'
p1091
asI544
(lp1092
g29
ag21
aS'A F'
p1093
asI545
(lp1094
g29
ag24
aS'Ayx'
p1095
asI546
(lp1096
g29
ag24
aS'A x'
p1097
asI547
(lp1098
g29
ag7
aS'Aye'
p1099
asI548
(lp1100
g29
ag7
aS'A e'
p1101
asI549
(lp1102
g29
ag29
aS'AyE'
p1103
asI550
(lp1104
g29
ag29
aS'A E'
p1105
asI551
(lp1106
g29
ag12
aS'Ayo'
p1107
asI552
(lp1108
g29
ag12
aS'A o'
p1109
asI553
(lp1110
g29
ag32
aS'AyO'
p1111
asI554
(lp1112
g29
ag32
aS'A O'
p1113
asI555
(lp1114
g29
ag35
aS'Ek'
p1115
asI556
(lp1116
g29
ag38
aS'EK'
p1117
asI557
(lp1118
g29
ag41
aS'Eg'
p1119
asI558
(lp1120
g29
ag44
aS'EG'
p1121
asI559
(lp1122
g29
ag47
aS'EN'
p1123
asI560
(lp1124
g29
ag50
aS'Ec'
p1125
asI561
(lp1126
g29
ag53
aS'EcC'
p1127
asI562
(lp1128
g29
ag53
aS'EC'
p1129
asI563
(lp1130
g29
ag56
aS'Ej'
p1131
asI564
(lp1132
g29
ag59
aS'EJ'
p1133
asI565
(lp1134
g29
ag62
aS'EY'
p1135
asI566
(lp1136
g29
ag65
aS'Ew'
p1137
asI567
(lp1138
g29
ag68
aS'EW'
p1139
asI568
(lp1140
g29
ag71
aS'Eq'
p1141
asI569
(lp1142
g29
ag74
aS'EQ'
p1143
asI570
(lp1144
g29
ag77
aS'ER'
p1145
asI571
(lp1146
g29
ag80
aS'Et'
p1147
asI572
(lp1148
g29
ag83
aS'ET'
p1149
asI573
(lp1150
g29
ag86
aS'Ed'
p1151
asI574
(lp1152
g29
ag89
aS'ED'
p1153
asI575
(lp1154
g29
ag92
aS'En'
p1155
asI576
(lp1156
g29
ag95
aS'Ep'
p1157
asI577
(lp1158
g29
ag98
aS'EP'
p1159
asI578
(lp1160
g29
ag101
aS'Eb'
p1161
asI579
(lp1162
g29
ag104
aS'EB'
p1163
asI580
(lp1164
g29
ag107
aS'Em'
p1165
asI581
(lp1166
g29
ag110
aS'Ey'
p1167
asI582
(lp1168
g29
ag113
aS'Er'
p1169
asI583
(lp1170
g29
ag116
aS'El'
p1171
asI584
(lp1172
g29
ag119
aS'Ev'
p1173
asI585
(lp1174
g29
ag122
aS'ES'
p1175
asI586
(lp1176
g29
ag125
aS'Ez'
p1177
asI587
(lp1178
g29
ag128
aS'Es'
p1179
asI588
(lp1180
g29
ag131
aS'Eh'
p1181
asI589
(lp1182
g12
ag2
aS"o'"
p1183
asI590
(lp1184
g12
ag3
aS'avA'
p1185
asI591
(lp1186
g12
ag3
aS'a A'
p1187
asI592
(lp1188
g12
ag6
aS'avi'
p1189
asI593
(lp1190
g12
ag6
aS'a i'
p1191
asI594
(lp1192
g12
ag9
aS'avI'
p1193
asI595
(lp1194
g12
ag9
aS'a I'
p1195
asI596
(lp1196
g12
ag11
aS'avu'
p1197
asI597
(lp1198
g12
ag11
aS'a u'
p1199
asI598
(lp1200
g12
ag14
aS'avU'
p1201
asI599
(lp1202
g12
ag14
aS'a U'
p1203
asI600
(lp1204
g12
ag16
aS'avf'
p1205
asI601
(lp1206
g12
ag16
aS'a f'
p1207
asI602
(lp1208
g12
ag21
aS'avF'
p1209
asI603
(lp1210
g12
ag21
aS'a F'
p1211
asI604
(lp1212
g12
ag24
aS'avx'
p1213
asI605
(lp1214
g12
ag24
aS'a x'
p1215
asI606
(lp1216
g12
ag7
aS'ave'
p1217
asI607
(lp1218
g12
ag7
aS'a e'
p1219
asI608
(lp1220
g12
ag29
aS'avE'
p1221
asI609
(lp1222
g12
ag29
aS'a E'
p1223
asI610
(lp1224
g12
ag12
aS'avo'
p1225
asI611
(lp1226
g12
ag12
aS'a o'
p1227
asI612
(lp1228
g12
ag32
aS'avO'
p1229
asI613
(lp1230
g12
ag32
aS'a O'
p1231
asI614
(lp1232
g12
ag35
aS'ok'
p1233
asI615
(lp1234
g12
ag38
aS'oK'
p1235
asI616
(lp1236
g12
ag41
aS'og'
p1237
asI617
(lp1238
g12
ag44
aS'oG'
p1239
asI618
(lp1240
g12
ag47
aS'oN'
p1241
asI619
(lp1242
g12
ag50
aS'oc'
p1243
asI620
(lp1244
g12
ag53
aS'ocC'
p1245
asI621
(lp1246
g12
ag53
aS'oC'
p1247
asI622
(lp1248
g12
ag56
aS'oj'
p1249
asI623
(lp1250
g12
ag59
aS'oJ'
p1251
asI624
(lp1252
g12
ag62
aS'oY'
p1253
asI625
(lp1254
g12
ag65
aS'ow'
p1255
asI626
(lp1256
g12
ag68
aS'oW'
p1257
asI627
(lp1258
g12
ag71
aS'oq'
p1259
asI628
(lp1260
g12
ag74
aS'oQ'
p1261
asI629
(lp1262
g12
ag77
aS'oR'
p1263
asI630
(lp1264
g12
ag80
aS'ot'
p1265
asI631
(lp1266
g12
ag83
aS'oT'
p1267
asI632
(lp1268
g12
ag86
aS'od'
p1269
asI633
(lp1270
g12
ag89
aS'oD'
p1271
asI634
(lp1272
g12
ag92
aS'on'
p1273
asI635
(lp1274
g12
ag95
aS'op'
p1275
asI636
(lp1276
g12
ag98
aS'oP'
p1277
asI637
(lp1278
g12
ag101
aS'ob'
p1279
asI638
(lp1280
g12
ag104
aS'oB'
p1281
asI639
(lp1282
g12
ag107
aS'om'
p1283
asI640
(lp1284
g12
ag110
aS'oy'
p1285
asI641
(lp1286
g12
ag113
aS'or'
p1287
asI642
(lp1288
g12
ag116
aS'ol'
p1289
asI643
(lp1290
g12
ag119
aS'ov'
p1291
asI644
(lp1292
g12
ag122
aS'oS'
p1293
asI645
(lp1294
g12
ag125
aS'oz'
p1295
asI646
(lp1296
g12
ag128
aS'os'
p1297
asI647
(lp1298
g12
ag131
aS'oh'
p1299
asI648
(lp1300
g32
ag2
aS'Ava'
p1301
asI649
(lp1302
g32
ag2
aS'A a'
p1303
asI650
(lp1304
g32
ag3
aS'AvA'
p1305
asI651
(lp1306
g32
ag3
aS'A A'
p1307
asI652
(lp1308
g32
ag6
aS'Avi'
p1309
asI653
(lp1310
g32
ag6
aS'A i'
p1311
asI654
(lp1312
g32
ag9
aS'AvI'
p1313
asI655
(lp1314
g32
ag9
aS'A I'
p1315
asI656
(lp1316
g32
ag11
aS'Avu'
p1317
asI657
(lp1318
g32
ag11
aS'A u'
p1319
asI658
(lp1320
g32
ag14
aS'AvU'
p1321
asI659
(lp1322
g32
ag14
aS'A U'
p1323
asI660
(lp1324
g32
ag16
aS'Avf'
p1325
asI661
(lp1326
g32
ag16
aS'A f'
p1327
asI662
(lp1328
g32
ag21
aS'AvF'
p1329
asI663
(lp1330
g32
ag21
aS'A F'
p1331
asI664
(lp1332
g32
ag24
aS'Avx'
p1333
asI665
(lp1334
g32
ag24
aS'A x'
p1335
asI666
(lp1336
g32
ag7
aS'Ave'
p1337
asI667
(lp1338
g32
ag7
aS'A e'
p1339
asI668
(lp1340
g32
ag29
aS'AvE'
p1341
asI669
(lp1342
g32
ag29
aS'A E'
p1343
asI670
(lp1344
g32
ag12
aS'Avo'
p1345
asI671
(lp1346
g32
ag12
aS'A o'
p1347
asI672
(lp1348
g32
ag32
aS'AvO'
p1349
asI673
(lp1350
g32
ag32
aS'A O'
p1351
asI674
(lp1352
g32
ag35
aS'Ok'
p1353
asI675
(lp1354
g32
ag38
aS'OK'
p1355
asI676
(lp1356
g32
ag41
aS'Og'
p1357
asI677
(lp1358
g32
ag44
aS'OG'
p1359
asI678
(lp1360
g32
ag47
aS'ON'
p1361
asI679
(lp1362
g32
ag50
aS'Oc'
p1363
asI680
(lp1364
g32
ag53
aS'OcC'
p1365
asI681
(lp1366
g32
ag53
aS'OC'
p1367
asI682
(lp1368
g32
ag56
aS'Oj'
p1369
asI683
(lp1370
g32
ag59
aS'OJ'
p1371
asI684
(lp1372
g32
ag62
aS'OY'
p1373
asI685
(lp1374
g32
ag65
aS'Ow'
p1375
asI686
(lp1376
g32
ag68
aS'OW'
p1377
asI687
(lp1378
g32
ag71
aS'Oq'
p1379
asI688
(lp1380
g32
ag74
aS'OQ'
p1381
asI689
(lp1382
g32
ag77
aS'OR'
p1383
asI690
(lp1384
g32
ag80
aS'Ot'
p1385
asI691
(lp1386
g32
ag83
aS'OT'
p1387
asI692
(lp1388
g32
ag86
aS'Od'
p1389
asI693
(lp1390
g32
ag89
aS'OD'
p1391
asI694
(lp1392
g32
ag92
aS'On'
p1393
asI695
(lp1394
g32
ag95
aS'Op'
p1395
asI696
(lp1396
g32
ag98
aS'OP'
p1397
asI697
(lp1398
g32
ag101
aS'Ob'
p1399
asI698
(lp1400
g32
ag104
aS'OB'
p1401
asI699
(lp1402
g32
ag107
aS'Om'
p1403
asI700
(lp1404
g32
ag110
aS'Oy'
p1405
asI701
(lp1406
g32
ag113
aS'Or'
p1407
asI702
(lp1408
g32
ag116
aS'Ol'
p1409
asI703
(lp1410
g32
ag119
aS'Ov'
p1411
asI704
(lp1412
g32
ag122
aS'OS'
p1413
asI705
(lp1414
g32
ag125
aS'Oz'
p1415
asI706
(lp1416
g32
ag128
aS'Os'
p1417
asI707
(lp1418
g32
ag131
aS'Oh'
p1419
asI708
(lp1420
g35
ag2
aS'ga'
p1421
asI709
(lp1422
g35
ag3
aS'gA'
p1423
asI710
(lp1424
g35
ag6
aS'gi'
p1425
asI711
(lp1426
g35
ag9
aS'gI'
p1427
asI712
(lp1428
g35
ag11
aS'gu'
p1429
asI713
(lp1430
g35
ag14
aS'gU'
p1431
asI714
(lp1432
g35
ag16
aS'gf'
p1433
asI715
(lp1434
g35
ag21
aS'gF'
p1435
asI716
(lp1436
g35
ag24
aS'gx'
p1437
asI717
(lp1438
g35
ag7
aS'ge'
p1439
asI718
(lp1440
g35
ag29
aS'gE'
p1441
asI719
(lp1442
g35
ag12
aS'go'
p1443
asI720
(lp1444
g35
ag32
aS'gO'
p1445
asI721
(lp1446
g35
ag35
aS'kk'
p1447
asI722
(lp1448
g35
ag38
aS'kK'
p1449
asI723
(lp1450
g35
ag41
aS'gg'
p1451
asI724
(lp1452
g35
ag44
aS'gG'
p1453
asI725
(lp1454
g35
ag47
aS'gN'
p1455
asI726
(lp1456
g35
ag47
aS'NN'
p1457
asI727
(lp1458
g35
ag50
aS'kc'
p1459
asI728
(lp1460
g35
ag53
aS'kC'
p1461
asI729
(lp1462
g35
ag56
aS'gj'
p1463
asI730
(lp1464
g35
ag59
aS'gJ'
p1465
asI731
(lp1466
g35
ag62
aS'gY'
p1467
asI732
(lp1468
g35
ag62
aS'NY'
p1469
asI733
(lp1470
g35
ag65
aS'kw'
p1471
asI734
(lp1472
g35
ag68
aS'kW'
p1473
asI735
(lp1474
g35
ag71
aS'gq'
p1475
asI736
(lp1476
g35
ag74
aS'gQ'
p1477
asI737
(lp1478
g35
ag77
aS'gR'
p1479
asI738
(lp1480
g35
ag77
aS'NR'
p1481
asI739
(lp1482
g35
ag80
aS'kt'
p1483
asI740
(lp1484
g35
ag83
aS'kT'
p1485
asI741
(lp1486
g35
ag86
aS'gd'
p1487
asI742
(lp1488
g35
ag89
aS'gD'
p1489
asI743
(lp1490
g35
ag92
aS'gn'
p1491
asI744
(lp1492
g35
ag92
aS'Nn'
p1493
asI745
(lp1494
g35
ag95
aS'kp'
p1495
asI746
(lp1496
g35
ag98
aS'kP'
p1497
asI747
(lp1498
g35
ag101
aS'gb'
p1499
asI748
(lp1500
g35
ag104
aS'gB'
p1501
asI749
(lp1502
g35
ag107
aS'gm'
p1503
asI750
(lp1504
g35
ag107
aS'Nm'
p1505
asI751
(lp1506
g35
ag110
aS'gy'
p1507
asI752
(lp1508
g35
ag113
aS'gr'
p1509
asI753
(lp1510
g35
ag116
aS'gl'
p1511
asI754
(lp1512
g35
ag119
aS'gv'
p1513
asI755
(lp1514
g35
ag122
aS'kS'
p1515
asI756
(lp1516
g35
ag125
aS'kz'
p1517
asI757
(lp1518
g35
ag128
aS'ks'
p1519
asI758
(lp1520
g35
ag131
aS'gh'
p1521
asI759
(lp1522
g35
ag131
aS'gG'
p1523
asI760
(lp1524
g38
ag2
aS'ga'
p1525
asI761
(lp1526
g38
ag3
aS'gA'
p1527
asI762
(lp1528
g38
ag6
aS'gi'
p1529
asI763
(lp1530
g38
ag9
aS'gI'
p1531
asI764
(lp1532
g38
ag11
aS'gu'
p1533
asI765
(lp1534
g38
ag14
aS'gU'
p1535
asI766
(lp1536
g38
ag16
aS'gf'
p1537
asI767
(lp1538
g38
ag21
aS'gF'
p1539
asI768
(lp1540
g38
ag24
aS'gx'
p1541
asI769
(lp1542
g38
ag7
aS'ge'
p1543
asI770
(lp1544
g38
ag29
aS'gE'
p1545
asI771
(lp1546
g38
ag12
aS'go'
p1547
asI772
(lp1548
g38
ag32
aS'gO'
p1549
asI773
(lp1550
g38
ag35
aS'kk'
p1551
asI774
(lp1552
g38
ag38
aS'kK'
p1553
asI775
(lp1554
g38
ag41
aS'gg'
p1555
asI776
(lp1556
g38
ag44
aS'gG'
p1557
asI777
(lp1558
g38
ag47
aS'gN'
p1559
asI778
(lp1560
g38
ag47
aS'NN'
p1561
asI779
(lp1562
g38
ag50
aS'kc'
p1563
asI780
(lp1564
g38
ag53
aS'kC'
p1565
asI781
(lp1566
g38
ag56
aS'gj'
p1567
asI782
(lp1568
g38
ag59
aS'gJ'
p1569
asI783
(lp1570
g38
ag62
aS'gY'
p1571
asI784
(lp1572
g38
ag62
aS'NY'
p1573
asI785
(lp1574
g38
ag65
aS'kw'
p1575
asI786
(lp1576
g38
ag68
aS'kW'
p1577
asI787
(lp1578
g38
ag71
aS'gq'
p1579
asI788
(lp1580
g38
ag74
aS'gQ'
p1581
asI789
(lp1582
g38
ag77
aS'gR'
p1583
asI790
(lp1584
g38
ag77
aS'NR'
p1585
asI791
(lp1586
g38
ag80
aS'kt'
p1587
asI792
(lp1588
g38
ag83
aS'kT'
p1589
asI793
(lp1590
g38
ag86
aS'gd'
p1591
asI794
(lp1592
g38
ag89
aS'gD'
p1593
asI795
(lp1594
g38
ag92
aS'gn'
p1595
asI796
(lp1596
g38
ag92
aS'Nn'
p1597
asI797
(lp1598
g38
ag95
aS'kp'
p1599
asI798
(lp1600
g38
ag98
aS'kP'
p1601
asI799
(lp1602
g38
ag101
aS'gb'
p1603
asI800
(lp1604
g38
ag104
aS'gB'
p1605
asI801
(lp1606
g38
ag107
aS'gm'
p1607
asI802
(lp1608
g38
ag107
aS'Nm'
p1609
asI803
(lp1610
g38
ag110
aS'gy'
p1611
asI804
(lp1612
g38
ag113
aS'gr'
p1613
asI805
(lp1614
g38
ag116
aS'gl'
p1615
asI806
(lp1616
g38
ag119
aS'gv'
p1617
asI807
(lp1618
g38
ag122
aS'kS'
p1619
asI808
(lp1620
g38
ag125
aS'kz'
p1621
asI809
(lp1622
g38
ag128
aS'ks'
p1623
asI810
(lp1624
g38
ag131
aS'gh'
p1625
asI811
(lp1626
g38
ag131
aS'gG'
p1627
asI812
(lp1628
g41
ag2
aS'ga'
p1629
asI813
(lp1630
g41
ag3
aS'gA'
p1631
asI814
(lp1632
g41
ag6
aS'gi'
p1633
asI815
(lp1634
g41
ag9
aS'gI'
p1635
asI816
(lp1636
g41
ag11
aS'gu'
p1637
asI817
(lp1638
g41
ag14
aS'gU'
p1639
asI818
(lp1640
g41
ag16
aS'gf'
p1641
asI819
(lp1642
g41
ag21
aS'gF'
p1643
asI820
(lp1644
g41
ag24
aS'gx'
p1645
asI821
(lp1646
g41
ag7
aS'ge'
p1647
asI822
(lp1648
g41
ag29
aS'gE'
p1649
asI823
(lp1650
g41
ag12
aS'go'
p1651
asI824
(lp1652
g41
ag32
aS'gO'
p1653
asI825
(lp1654
g41
ag35
aS'kk'
p1655
asI826
(lp1656
g41
ag38
aS'kK'
p1657
asI827
(lp1658
g41
ag41
aS'gg'
p1659
asI828
(lp1660
g41
ag44
aS'gG'
p1661
asI829
(lp1662
g41
ag47
aS'gN'
p1663
asI830
(lp1664
g41
ag47
aS'NN'
p1665
asI831
(lp1666
g41
ag50
aS'kc'
p1667
asI832
(lp1668
g41
ag53
aS'kC'
p1669
asI833
(lp1670
g41
ag56
aS'gj'
p1671
asI834
(lp1672
g41
ag59
aS'gJ'
p1673
asI835
(lp1674
g41
ag62
aS'gY'
p1675
asI836
(lp1676
g41
ag62
aS'NY'
p1677
asI837
(lp1678
g41
ag65
aS'kw'
p1679
asI838
(lp1680
g41
ag68
aS'kW'
p1681
asI839
(lp1682
g41
ag71
aS'gq'
p1683
asI840
(lp1684
g41
ag74
aS'gQ'
p1685
asI841
(lp1686
g41
ag77
aS'gR'
p1687
asI842
(lp1688
g41
ag77
aS'NR'
p1689
asI843
(lp1690
g41
ag80
aS'kt'
p1691
asI844
(lp1692
g41
ag83
aS'kT'
p1693
asI845
(lp1694
g41
ag86
aS'gd'
p1695
asI846
(lp1696
g41
ag89
aS'gD'
p1697
asI847
(lp1698
g41
ag92
aS'gn'
p1699
asI848
(lp1700
g41
ag92
aS'Nn'
p1701
asI849
(lp1702
g41
ag95
aS'kp'
p1703
asI850
(lp1704
g41
ag98
aS'kP'
p1705
asI851
(lp1706
g41
ag101
aS'gb'
p1707
asI852
(lp1708
g41
ag104
aS'gB'
p1709
asI853
(lp1710
g41
ag107
aS'gm'
p1711
asI854
(lp1712
g41
ag107
aS'Nm'
p1713
asI855
(lp1714
g41
ag110
aS'gy'
p1715
asI856
(lp1716
g41
ag113
aS'gr'
p1717
asI857
(lp1718
g41
ag116
aS'gl'
p1719
asI858
(lp1720
g41
ag119
aS'gv'
p1721
asI859
(lp1722
g41
ag122
aS'kS'
p1723
asI860
(lp1724
g41
ag125
aS'kz'
p1725
asI861
(lp1726
g41
ag128
aS'ks'
p1727
asI862
(lp1728
g41
ag131
aS'gG'
p1729
asI863
(lp1730
g41
ag131
aS'gh'
p1731
asI864
(lp1732
g44
ag2
aS'ga'
p1733
asI865
(lp1734
g44
ag3
aS'gA'
p1735
asI866
(lp1736
g44
ag6
aS'gi'
p1737
asI867
(lp1738
g44
ag9
aS'gI'
p1739
asI868
(lp1740
g44
ag11
aS'gu'
p1741
asI869
(lp1742
g44
ag14
aS'gU'
p1743
asI870
(lp1744
g44
ag16
aS'gf'
p1745
asI871
(lp1746
g44
ag21
aS'gF'
p1747
asI872
(lp1748
g44
ag24
aS'gx'
p1749
asI873
(lp1750
g44
ag7
aS'ge'
p1751
asI874
(lp1752
g44
ag29
aS'gE'
p1753
asI875
(lp1754
g44
ag12
aS'go'
p1755
asI876
(lp1756
g44
ag32
aS'gO'
p1757
asI877
(lp1758
g44
ag35
aS'kk'
p1759
asI878
(lp1760
g44
ag38
aS'kK'
p1761
asI879
(lp1762
g44
ag41
aS'gg'
p1763
asI880
(lp1764
g44
ag44
aS'gG'
p1765
asI881
(lp1766
g44
ag47
aS'gN'
p1767
asI882
(lp1768
g44
ag47
aS'NN'
p1769
asI883
(lp1770
g44
ag50
aS'kc'
p1771
asI884
(lp1772
g44
ag53
aS'kC'
p1773
asI885
(lp1774
g44
ag56
aS'gj'
p1775
asI886
(lp1776
g44
ag59
aS'gJ'
p1777
asI887
(lp1778
g44
ag62
aS'gY'
p1779
asI888
(lp1780
g44
ag62
aS'NY'
p1781
asI889
(lp1782
g44
ag65
aS'kw'
p1783
asI890
(lp1784
g44
ag68
aS'kW'
p1785
asI891
(lp1786
g44
ag71
aS'gq'
p1787
asI892
(lp1788
g44
ag74
aS'gQ'
p1789
asI893
(lp1790
g44
ag77
aS'gR'
p1791
asI894
(lp1792
g44
ag77
aS'NR'
p1793
asI895
(lp1794
g44
ag80
aS'kt'
p1795
asI896
(lp1796
g44
ag83
aS'kT'
p1797
asI897
(lp1798
g44
ag86
aS'gd'
p1799
asI898
(lp1800
g44
ag89
aS'gD'
p1801
asI899
(lp1802
g44
ag92
aS'gn'
p1803
asI900
(lp1804
g44
ag92
aS'Nn'
p1805
asI901
(lp1806
g44
ag95
aS'kp'
p1807
asI902
(lp1808
g44
ag98
aS'kP'
p1809
asI903
(lp1810
g44
ag101
aS'gb'
p1811
asI904
(lp1812
g44
ag104
aS'gB'
p1813
asI905
(lp1814
g44
ag107
aS'gm'
p1815
asI906
(lp1816
g44
ag107
aS'Nm'
p1817
asI907
(lp1818
g44
ag110
aS'gy'
p1819
asI908
(lp1820
g44
ag113
aS'gr'
p1821
asI909
(lp1822
g44
ag116
aS'gl'
p1823
asI910
(lp1824
g44
ag119
aS'gv'
p1825
asI911
(lp1826
g44
ag122
aS'kS'
p1827
asI912
(lp1828
g44
ag125
aS'kz'
p1829
asI913
(lp1830
g44
ag128
aS'ks'
p1831
asI914
(lp1832
g44
ag131
aS'gh'
p1833
asI915
(lp1834
g44
ag131
aS'gG'
p1835
asI916
(lp1836
g47
ag2
aS'Na'
p1837
asI917
(lp1838
g47
ag3
aS'NA'
p1839
asI918
(lp1840
g47
ag6
aS'Ni'
p1841
asI919
(lp1842
g47
ag9
aS'NI'
p1843
asI920
(lp1844
g47
ag11
aS'Nu'
p1845
asI921
(lp1846
g47
ag14
aS'NU'
p1847
asI922
(lp1848
g47
ag16
aS'Nf'
p1849
asI923
(lp1850
g47
ag21
aS'NF'
p1851
asI924
(lp1852
g47
ag24
aS'Nx'
p1853
asI925
(lp1854
g47
ag7
aS'Ne'
p1855
asI926
(lp1856
g47
ag29
aS'NE'
p1857
asI927
(lp1858
g47
ag12
aS'No'
p1859
asI928
(lp1860
g47
ag32
aS'NO'
p1861
asI929
(lp1862
g47
ag35
aS'Nk'
p1863
asI930
(lp1864
g47
ag38
aS'NK'
p1865
asI931
(lp1866
g47
ag41
aS'Ng'
p1867
asI932
(lp1868
g47
ag44
aS'NG'
p1869
asI933
(lp1870
g47
ag47
aS'NN'
p1871
asI934
(lp1872
g47
ag50
aS'Nc'
p1873
asI935
(lp1874
g47
ag53
aS'NC'
p1875
asI936
(lp1876
g47
ag56
aS'Nj'
p1877
asI937
(lp1878
g47
ag59
aS'NJ'
p1879
asI938
(lp1880
g47
ag62
aS'NY'
p1881
asI939
(lp1882
g47
ag65
aS'Nw'
p1883
asI940
(lp1884
g47
ag68
aS'NW'
p1885
asI941
(lp1886
g47
ag71
aS'Nq'
p1887
asI942
(lp1888
g47
ag74
aS'NQ'
p1889
asI943
(lp1890
g47
ag77
aS'NR'
p1891
asI944
(lp1892
g47
ag80
aS'Nt'
p1893
asI945
(lp1894
g47
ag83
aS'NT'
p1895
asI946
(lp1896
g47
ag86
aS'Nd'
p1897
asI947
(lp1898
g47
ag89
aS'ND'
p1899
asI948
(lp1900
g47
ag92
aS'Nn'
p1901
asI949
(lp1902
g47
ag95
aS'Np'
p1903
asI950
(lp1904
g47
ag98
aS'NP'
p1905
asI951
(lp1906
g47
ag101
aS'Nb'
p1907
asI952
(lp1908
g47
ag104
aS'NB'
p1909
asI953
(lp1910
g47
ag107
aS'Nm'
p1911
asI954
(lp1912
g47
ag110
aS'Ny'
p1913
asI955
(lp1914
g47
ag113
aS'Nr'
p1915
asI956
(lp1916
g47
ag116
aS'Nl'
p1917
asI957
(lp1918
g47
ag119
aS'Nv'
p1919
asI958
(lp1920
g47
ag122
aS'NkS'
p1921
asI959
(lp1922
g47
ag122
aS'NKS'
p1923
asI960
(lp1924
g47
ag122
aS'NS'
p1925
asI961
(lp1926
g47
ag125
aS'Nkz'
p1927
asI962
(lp1928
g47
ag125
aS'NKz'
p1929
asI963
(lp1930
g47
ag125
aS'Nz'
p1931
asI964
(lp1932
g47
ag128
aS'Nks'
p1933
asI965
(lp1934
g47
ag128
aS'NKs'
p1935
asI966
(lp1936
g47
ag128
aS'Ns'
p1937
asI967
(lp1938
g47
ag131
aS'Nh'
p1939
asI968
(lp1940
g50
ag2
aS'ja'
p1941
asI969
(lp1942
g50
ag3
aS'jA'
p1943
asI970
(lp1944
g50
ag6
aS'ji'
p1945
asI971
(lp1946
g50
ag9
aS'jI'
p1947
asI972
(lp1948
g50
ag11
aS'ju'
p1949
asI973
(lp1950
g50
ag14
aS'jU'
p1951
asI974
(lp1952
g50
ag16
aS'jf'
p1953
asI975
(lp1954
g50
ag21
aS'jF'
p1955
asI976
(lp1956
g50
ag24
aS'jx'
p1957
asI977
(lp1958
g50
ag7
aS'je'
p1959
asI978
(lp1960
g50
ag29
aS'jE'
p1961
asI979
(lp1962
g50
ag12
aS'jo'
p1963
asI980
(lp1964
g50
ag32
aS'jO'
p1965
asI981
(lp1966
g50
ag35
aS'ck'
p1967
asI982
(lp1968
g50
ag38
aS'cK'
p1969
asI983
(lp1970
g50
ag41
aS'jg'
p1971
asI984
(lp1972
g50
ag44
aS'jG'
p1973
asI985
(lp1974
g50
ag47
aS'jN'
p1975
asI986
(lp1976
g50
ag47
aS'YN'
p1977
asI987
(lp1978
g50
ag50
aS'cc'
p1979
asI988
(lp1980
g50
ag53
aS'cC'
p1981
asI989
(lp1982
g50
ag56
aS'jj'
p1983
asI990
(lp1984
g50
ag59
aS'jJ'
p1985
asI991
(lp1986
g50
ag62
aS'jY'
p1987
asI992
(lp1988
g50
ag62
aS'YY'
p1989
asI993
(lp1990
g50
ag65
aS'cw'
p1991
asI994
(lp1992
g50
ag68
aS'cW'
p1993
asI995
(lp1994
g50
ag71
aS'jq'
p1995
asI996
(lp1996
g50
ag74
aS'jQ'
p1997
asI997
(lp1998
g50
ag77
aS'jR'
p1999
asI998
(lp2000
g50
ag77
aS'YR'
p2001
asI999
(lp2002
g50
ag80
aS'cc'
p2003
asI1000
(lp2004
g50
ag83
aS'cC'
p2005
asI1001
(lp2006
g50
ag86
aS'jd'
p2007
asI1002
(lp2008
g50
ag89
aS'JD'
p2009
asI1003
(lp2010
g50
ag92
aS'cY'
p2011
asI1004
(lp2012
g50
ag95
aS'cp'
p2013
asI1005
(lp2014
g50
ag98
aS'cP'
p2015
asI1006
(lp2016
g50
ag101
aS'jb'
p2017
asI1007
(lp2018
g50
ag104
aS'jB'
p2019
asI1008
(lp2020
g50
ag107
aS'jm'
p2021
asI1009
(lp2022
g50
ag107
aS'Ym'
p2023
asI1010
(lp2024
g50
ag110
aS'jy'
p2025
asI1011
(lp2026
g50
ag113
aS'jr'
p2027
asI1012
(lp2028
g50
ag116
aS'jl'
p2029
asI1013
(lp2030
g50
ag119
aS'jv'
p2031
asI1014
(lp2032
g50
ag122
aS'cS'
p2033
asI1015
(lp2034
g50
ag125
aS'cz'
p2035
asI1016
(lp2036
g50
ag128
aS'cs'
p2037
asI1017
(lp2038
g50
ag131
aS'jh'
p2039
asI1018
(lp2040
g50
ag131
aS'jJ'
p2041
asI1019
(lp2042
g53
ag2
aS'ja'
p2043
asI1020
(lp2044
g53
ag3
aS'jA'
p2045
asI1021
(lp2046
g53
ag6
aS'ji'
p2047
asI1022
(lp2048
g53
ag9
aS'jI'
p2049
asI1023
(lp2050
g53
ag11
aS'ju'
p2051
asI1024
(lp2052
g53
ag14
aS'jU'
p2053
asI1025
(lp2054
g53
ag16
aS'jf'
p2055
asI1026
(lp2056
g53
ag21
aS'jF'
p2057
asI1027
(lp2058
g53
ag24
aS'jx'
p2059
asI1028
(lp2060
g53
ag7
aS'je'
p2061
asI1029
(lp2062
g53
ag29
aS'jE'
p2063
asI1030
(lp2064
g53
ag12
aS'jo'
p2065
asI1031
(lp2066
g53
ag32
aS'jO'
p2067
asI1032
(lp2068
g53
ag35
aS'ck'
p2069
asI1033
(lp2070
g53
ag38
aS'cK'
p2071
asI1034
(lp2072
g53
ag41
aS'jg'
p2073
asI1035
(lp2074
g53
ag44
aS'jG'
p2075
asI1036
(lp2076
g53
ag47
aS'jN'
p2077
asI1037
(lp2078
g53
ag47
aS'YN'
p2079
asI1038
(lp2080
g53
ag50
aS'cc'
p2081
asI1039
(lp2082
g53
ag53
aS'cC'
p2083
asI1040
(lp2084
g53
ag56
aS'jj'
p2085
asI1041
(lp2086
g53
ag59
aS'jJ'
p2087
asI1042
(lp2088
g53
ag62
aS'jY'
p2089
asI1043
(lp2090
g53
ag62
aS'YY'
p2091
asI1044
(lp2092
g53
ag65
aS'cw'
p2093
asI1045
(lp2094
g53
ag68
aS'cW'
p2095
asI1046
(lp2096
g53
ag71
aS'jq'
p2097
asI1047
(lp2098
g53
ag74
aS'jQ'
p2099
asI1048
(lp2100
g53
ag77
aS'jR'
p2101
asI1049
(lp2102
g53
ag77
aS'YR'
p2103
asI1050
(lp2104
g53
ag80
aS'cc'
p2105
asI1051
(lp2106
g53
ag83
aS'cC'
p2107
asI1052
(lp2108
g53
ag86
aS'jj'
p2109
asI1053
(lp2110
g53
ag89
aS'JJ'
p2111
asI1054
(lp2112
g53
ag92
aS'jY'
p2113
asI1055
(lp2114
g53
ag92
aS'YY'
p2115
asI1056
(lp2116
g53
ag95
aS'cp'
p2117
asI1057
(lp2118
g53
ag98
aS'cP'
p2119
asI1058
(lp2120
g53
ag101
aS'jb'
p2121
asI1059
(lp2122
g53
ag104
aS'jB'
p2123
asI1060
(lp2124
g53
ag107
aS'jm'
p2125
asI1061
(lp2126
g53
ag107
aS'Ym'
p2127
asI1062
(lp2128
g53
ag110
aS'jy'
p2129
asI1063
(lp2130
g53
ag113
aS'jr'
p2131
asI1064
(lp2132
g53
ag116
aS'jl'
p2133
asI1065
(lp2134
g53
ag119
aS'jv'
p2135
asI1066
(lp2136
g53
ag122
aS'cS'
p2137
asI1067
(lp2138
g53
ag125
aS'cz'
p2139
asI1068
(lp2140
g53
ag128
aS'cs'
p2141
asI1069
(lp2142
g53
ag131
aS'jh'
p2143
asI1070
(lp2144
g53
ag131
aS'jJ'
p2145
asI1071
(lp2146
g56
ag2
aS'ja'
p2147
asI1072
(lp2148
g56
ag3
aS'jA'
p2149
asI1073
(lp2150
g56
ag6
aS'ji'
p2151
asI1074
(lp2152
g56
ag9
aS'jI'
p2153
asI1075
(lp2154
g56
ag11
aS'ju'
p2155
asI1076
(lp2156
g56
ag14
aS'jU'
p2157
asI1077
(lp2158
g56
ag16
aS'jf'
p2159
asI1078
(lp2160
g56
ag21
aS'jF'
p2161
asI1079
(lp2162
g56
ag24
aS'jx'
p2163
asI1080
(lp2164
g56
ag7
aS'je'
p2165
asI1081
(lp2166
g56
ag29
aS'jE'
p2167
asI1082
(lp2168
g56
ag12
aS'jo'
p2169
asI1083
(lp2170
g56
ag32
aS'jO'
p2171
asI1084
(lp2172
g56
ag35
aS'ck'
p2173
asI1085
(lp2174
g56
ag38
aS'cK'
p2175
asI1086
(lp2176
g56
ag41
aS'jg'
p2177
asI1087
(lp2178
g56
ag44
aS'jG'
p2179
asI1088
(lp2180
g56
ag47
aS'jN'
p2181
asI1089
(lp2182
g56
ag47
aS'YN'
p2183
asI1090
(lp2184
g56
ag50
aS'cc'
p2185
asI1091
(lp2186
g56
ag53
aS'cC'
p2187
asI1092
(lp2188
g56
ag56
aS'jj'
p2189
asI1093
(lp2190
g56
ag59
aS'jJ'
p2191
asI1094
(lp2192
g56
ag62
aS'jY'
p2193
asI1095
(lp2194
g56
ag62
aS'YY'
p2195
asI1096
(lp2196
g56
ag65
aS'cw'
p2197
asI1097
(lp2198
g56
ag68
aS'cW'
p2199
asI1098
(lp2200
g56
ag71
aS'jq'
p2201
asI1099
(lp2202
g56
ag74
aS'jQ'
p2203
asI1100
(lp2204
g56
ag77
aS'jR'
p2205
asI1101
(lp2206
g56
ag77
aS'YR'
p2207
asI1102
(lp2208
g56
ag80
aS'cc'
p2209
asI1103
(lp2210
g56
ag83
aS'cC'
p2211
asI1104
(lp2212
g56
ag86
aS'jj'
p2213
asI1105
(lp2214
g56
ag89
aS'jJ'
p2215
asI1106
(lp2216
g56
ag92
aS'jY'
p2217
asI1107
(lp2218
g56
ag92
aS'YY'
p2219
asI1108
(lp2220
g56
ag95
aS'cp'
p2221
asI1109
(lp2222
g56
ag98
aS'cP'
p2223
asI1110
(lp2224
g56
ag101
aS'jb'
p2225
asI1111
(lp2226
g56
ag104
aS'jB'
p2227
asI1112
(lp2228
g56
ag107
aS'jm'
p2229
asI1113
(lp2230
g56
ag107
aS'Ym'
p2231
asI1114
(lp2232
g56
ag110
aS'jy'
p2233
asI1115
(lp2234
g56
ag113
aS'jr'
p2235
asI1116
(lp2236
g56
ag116
aS'jl'
p2237
asI1117
(lp2238
g56
ag119
aS'jv'
p2239
asI1118
(lp2240
g56
ag122
aS'cS'
p2241
asI1119
(lp2242
g56
ag125
aS'cz'
p2243
asI1120
(lp2244
g56
ag128
aS'cs'
p2245
asI1121
(lp2246
g56
ag131
aS'jJ'
p2247
asI1122
(lp2248
g56
ag131
aS'jh'
p2249
asI1123
(lp2250
g59
ag2
aS'ja'
p2251
asI1124
(lp2252
g59
ag3
aS'jA'
p2253
asI1125
(lp2254
g59
ag6
aS'ji'
p2255
asI1126
(lp2256
g59
ag9
aS'jI'
p2257
asI1127
(lp2258
g59
ag11
aS'ju'
p2259
asI1128
(lp2260
g59
ag14
aS'jU'
p2261
asI1129
(lp2262
g59
ag16
aS'jf'
p2263
asI1130
(lp2264
g59
ag21
aS'jF'
p2265
asI1131
(lp2266
g59
ag24
aS'jx'
p2267
asI1132
(lp2268
g59
ag7
aS'je'
p2269
asI1133
(lp2270
g59
ag29
aS'jE'
p2271
asI1134
(lp2272
g59
ag12
aS'jo'
p2273
asI1135
(lp2274
g59
ag32
aS'jO'
p2275
asI1136
(lp2276
g59
ag35
aS'ck'
p2277
asI1137
(lp2278
g59
ag38
aS'cK'
p2279
asI1138
(lp2280
g59
ag41
aS'jg'
p2281
asI1139
(lp2282
g59
ag44
aS'jG'
p2283
asI1140
(lp2284
g59
ag47
aS'jN'
p2285
asI1141
(lp2286
g59
ag47
aS'YN'
p2287
asI1142
(lp2288
g59
ag50
aS'cc'
p2289
asI1143
(lp2290
g59
ag53
aS'cC'
p2291
asI1144
(lp2292
g59
ag56
aS'jj'
p2293
asI1145
(lp2294
g59
ag59
aS'jJ'
p2295
asI1146
(lp2296
g59
ag62
aS'jY'
p2297
asI1147
(lp2298
g59
ag62
aS'YY'
p2299
asI1148
(lp2300
g59
ag65
aS'cw'
p2301
asI1149
(lp2302
g59
ag68
aS'cW'
p2303
asI1150
(lp2304
g59
ag71
aS'jq'
p2305
asI1151
(lp2306
g59
ag74
aS'jQ'
p2307
asI1152
(lp2308
g59
ag77
aS'jR'
p2309
asI1153
(lp2310
g59
ag77
aS'YR'
p2311
asI1154
(lp2312
g59
ag80
aS'cc'
p2313
asI1155
(lp2314
g59
ag83
aS'cC'
p2315
asI1156
(lp2316
g59
ag86
aS'jj'
p2317
asI1157
(lp2318
g59
ag89
aS'jJ'
p2319
asI1158
(lp2320
g59
ag92
aS'jY'
p2321
asI1159
(lp2322
g59
ag92
aS'YY'
p2323
asI1160
(lp2324
g59
ag95
aS'cp'
p2325
asI1161
(lp2326
g59
ag98
aS'cP'
p2327
asI1162
(lp2328
g59
ag101
aS'jb'
p2329
asI1163
(lp2330
g59
ag104
aS'jB'
p2331
asI1164
(lp2332
g59
ag107
aS'jm'
p2333
asI1165
(lp2334
g59
ag107
aS'Ym'
p2335
asI1166
(lp2336
g59
ag110
aS'jy'
p2337
asI1167
(lp2338
g59
ag113
aS'jr'
p2339
asI1168
(lp2340
g59
ag116
aS'jl'
p2341
asI1169
(lp2342
g59
ag119
aS'jv'
p2343
asI1170
(lp2344
g59
ag122
aS'cS'
p2345
asI1171
(lp2346
g59
ag125
aS'cz'
p2347
asI1172
(lp2348
g59
ag128
aS'cs'
p2349
asI1173
(lp2350
g59
ag131
aS'jJ'
p2351
asI1174
(lp2352
g59
ag131
aS'jh'
p2353
asI1175
(lp2354
g62
ag2
aS'Ya'
p2355
asI1176
(lp2356
g62
ag3
aS'YA'
p2357
asI1177
(lp2358
g62
ag6
aS'Yi'
p2359
asI1178
(lp2360
g62
ag9
aS'YI'
p2361
asI1179
(lp2362
g62
ag11
aS'Yu'
p2363
asI1180
(lp2364
g62
ag14
aS'YU'
p2365
asI1181
(lp2366
g62
ag16
aS'Yf'
p2367
asI1182
(lp2368
g62
ag21
aS'YF'
p2369
asI1183
(lp2370
g62
ag24
aS'Yx'
p2371
asI1184
(lp2372
g62
ag7
aS'Ye'
p2373
asI1185
(lp2374
g62
ag29
aS'YE'
p2375
asI1186
(lp2376
g62
ag12
aS'Yo'
p2377
asI1187
(lp2378
g62
ag32
aS'YO'
p2379
asI1188
(lp2380
g62
ag35
aS'Yk'
p2381
asI1189
(lp2382
g62
ag38
aS'YK'
p2383
asI1190
(lp2384
g62
ag41
aS'Yg'
p2385
asI1191
(lp2386
g62
ag44
aS'YG'
p2387
asI1192
(lp2388
g62
ag47
aS'YN'
p2389
asI1193
(lp2390
g62
ag50
aS'Yc'
p2391
asI1194
(lp2392
g62
ag53
aS'YC'
p2393
asI1195
(lp2394
g62
ag56
aS'Yj'
p2395
asI1196
(lp2396
g62
ag59
aS'YJ'
p2397
asI1197
(lp2398
g62
ag62
aS'YY'
p2399
asI1198
(lp2400
g62
ag65
aS'Yw'
p2401
asI1199
(lp2402
g62
ag68
aS'YW'
p2403
asI1200
(lp2404
g62
ag71
aS'Yq'
p2405
asI1201
(lp2406
g62
ag74
aS'YQ'
p2407
asI1202
(lp2408
g62
ag77
aS'YR'
p2409
asI1203
(lp2410
g62
ag80
aS'Yc'
p2411
asI1204
(lp2412
g62
ag83
aS'YC'
p2413
asI1205
(lp2414
g62
ag86
aS'Yj'
p2415
asI1206
(lp2416
g62
ag89
aS'YJ'
p2417
asI1207
(lp2418
g62
ag92
aS'YY'
p2419
asI1208
(lp2420
g62
ag95
aS'Yp'
p2421
asI1209
(lp2422
g62
ag98
aS'YP'
p2423
asI1210
(lp2424
g62
ag101
aS'Yb'
p2425
asI1211
(lp2426
g62
ag104
aS'YB'
p2427
asI1212
(lp2428
g62
ag107
aS'Ym'
p2429
asI1213
(lp2430
g62
ag110
aS'Yy'
p2431
asI1214
(lp2432
g62
ag113
aS'Yr'
p2433
asI1215
(lp2434
g62
ag116
aS'Yl'
p2435
asI1216
(lp2436
g62
ag119
aS'Yv'
p2437
asI1217
(lp2438
g62
ag122
aS'YS'
p2439
asI1218
(lp2440
g62
ag125
aS'Yz'
p2441
asI1219
(lp2442
g62
ag128
aS'Ys'
p2443
asI1220
(lp2444
g62
ag131
aS'Yh'
p2445
asI1221
(lp2446
g65
ag2
aS'qa'
p2447
asI1222
(lp2448
g65
ag3
aS'qA'
p2449
asI1223
(lp2450
g65
ag6
aS'qi'
p2451
asI1224
(lp2452
g65
ag9
aS'qI'
p2453
asI1225
(lp2454
g65
ag11
aS'qu'
p2455
asI1226
(lp2456
g65
ag14
aS'qU'
p2457
asI1227
(lp2458
g65
ag16
aS'qf'
p2459
asI1228
(lp2460
g65
ag21
aS'qF'
p2461
asI1229
(lp2462
g65
ag24
aS'qx'
p2463
asI1230
(lp2464
g65
ag7
aS'qe'
p2465
asI1231
(lp2466
g65
ag29
aS'qE'
p2467
asI1232
(lp2468
g65
ag12
aS'qo'
p2469
asI1233
(lp2470
g65
ag32
aS'qO'
p2471
asI1234
(lp2472
g65
ag35
aS'wk'
p2473
asI1235
(lp2474
g65
ag38
aS'wK'
p2475
asI1236
(lp2476
g65
ag41
aS'qg'
p2477
asI1237
(lp2478
g65
ag44
aS'qG'
p2479
asI1238
(lp2480
g65
ag47
aS'qN'
p2481
asI1239
(lp2482
g65
ag47
aS'RN'
p2483
asI1240
(lp2484
g65
ag50
aS'wc'
p2485
asI1241
(lp2486
g65
ag53
aS'wC'
p2487
asI1242
(lp2488
g65
ag56
aS'qj'
p2489
asI1243
(lp2490
g65
ag59
aS'qJ'
p2491
asI1244
(lp2492
g65
ag62
aS'qY'
p2493
asI1245
(lp2494
g65
ag62
aS'RY'
p2495
asI1246
(lp2496
g65
ag65
aS'ww'
p2497
asI1247
(lp2498
g65
ag68
aS'wW'
p2499
asI1248
(lp2500
g65
ag71
aS'qq'
p2501
asI1249
(lp2502
g65
ag74
aS'qQ'
p2503
asI1250
(lp2504
g65
ag77
aS'qR'
p2505
asI1251
(lp2506
g65
ag77
aS'RR'
p2507
asI1252
(lp2508
g65
ag80
aS'w t'
p2509
asI1253
(lp2510
g65
ag83
aS'w T'
p2511
asI1254
(lp2512
g65
ag86
aS'q d'
p2513
asI1255
(lp2514
g65
ag89
aS'q D'
p2515
asI1256
(lp2516
g65
ag92
aS'Rn'
p2517
asI1257
(lp2518
g65
ag92
aS'q n'
p2519
asI1258
(lp2520
g65
ag95
aS'wp'
p2521
asI1259
(lp2522
g65
ag98
aS'wP'
p2523
asI1260
(lp2524
g65
ag101
aS'qb'
p2525
asI1261
(lp2526
g65
ag104
aS'qB'
p2527
asI1262
(lp2528
g65
ag107
aS'qm'
p2529
asI1263
(lp2530
g65
ag107
aS'Rm'
p2531
asI1264
(lp2532
g65
ag110
aS'qy'
p2533
asI1265
(lp2534
g65
ag113
aS'qr'
p2535
asI1266
(lp2536
g65
ag116
aS'ql'
p2537
asI1267
(lp2538
g65
ag119
aS'qv'
p2539
asI1268
(lp2540
g65
ag122
aS'wS'
p2541
asI1269
(lp2542
g65
ag125
aS'wz'
p2543
asI1270
(lp2544
g65
ag128
aS'wts'
p2545
asI1271
(lp2546
g65
ag128
aS'ws'
p2547
asI1272
(lp2548
g65
ag131
aS'qh'
p2549
asI1273
(lp2550
g65
ag131
aS'qQ'
p2551
asI1274
(lp2552
g68
ag2
aS'qa'
p2553
asI1275
(lp2554
g68
ag3
aS'qA'
p2555
asI1276
(lp2556
g68
ag6
aS'qi'
p2557
asI1277
(lp2558
g68
ag9
aS'qI'
p2559
asI1278
(lp2560
g68
ag11
aS'qu'
p2561
asI1279
(lp2562
g68
ag14
aS'qU'
p2563
asI1280
(lp2564
g68
ag16
aS'qf'
p2565
asI1281
(lp2566
g68
ag21
aS'qF'
p2567
asI1282
(lp2568
g68
ag24
aS'qx'
p2569
asI1283
(lp2570
g68
ag7
aS'qe'
p2571
asI1284
(lp2572
g68
ag29
aS'qE'
p2573
asI1285
(lp2574
g68
ag12
aS'qo'
p2575
asI1286
(lp2576
g68
ag32
aS'qO'
p2577
asI1287
(lp2578
g68
ag35
aS'wk'
p2579
asI1288
(lp2580
g68
ag38
aS'wK'
p2581
asI1289
(lp2582
g68
ag41
aS'qg'
p2583
asI1290
(lp2584
g68
ag44
aS'qG'
p2585
asI1291
(lp2586
g68
ag47
aS'qN'
p2587
asI1292
(lp2588
g68
ag47
aS'RN'
p2589
asI1293
(lp2590
g68
ag50
aS'wc'
p2591
asI1294
(lp2592
g68
ag53
aS'wC'
p2593
asI1295
(lp2594
g68
ag56
aS'qj'
p2595
asI1296
(lp2596
g68
ag59
aS'qJ'
p2597
asI1297
(lp2598
g68
ag62
aS'qY'
p2599
asI1298
(lp2600
g68
ag62
aS'RY'
p2601
asI1299
(lp2602
g68
ag65
aS'ww'
p2603
asI1300
(lp2604
g68
ag68
aS'wW'
p2605
asI1301
(lp2606
g68
ag71
aS'qq'
p2607
asI1302
(lp2608
g68
ag74
aS'qQ'
p2609
asI1303
(lp2610
g68
ag77
aS'qR'
p2611
asI1304
(lp2612
g68
ag77
aS'RR'
p2613
asI1305
(lp2614
g68
ag80
aS'wt'
p2615
asI1306
(lp2616
g68
ag83
aS'wT'
p2617
asI1307
(lp2618
g68
ag86
aS'qd'
p2619
asI1308
(lp2620
g68
ag89
aS'qD'
p2621
asI1309
(lp2622
g68
ag92
aS'Rn'
p2623
asI1310
(lp2624
g68
ag92
aS'qn'
p2625
asI1311
(lp2626
g68
ag95
aS'wp'
p2627
asI1312
(lp2628
g68
ag98
aS'wP'
p2629
asI1313
(lp2630
g68
ag101
aS'qb'
p2631
asI1314
(lp2632
g68
ag104
aS'qB'
p2633
asI1315
(lp2634
g68
ag107
aS'qm'
p2635
asI1316
(lp2636
g68
ag107
aS'Rm'
p2637
asI1317
(lp2638
g68
ag110
aS'qy'
p2639
asI1318
(lp2640
g68
ag113
aS'qr'
p2641
asI1319
(lp2642
g68
ag116
aS'ql'
p2643
asI1320
(lp2644
g68
ag119
aS'qv'
p2645
asI1321
(lp2646
g68
ag122
aS'wS'
p2647
asI1322
(lp2648
g68
ag125
aS'wz'
p2649
asI1323
(lp2650
g68
ag128
aS'wz'
p2651
asI1324
(lp2652
g68
ag131
aS'qh'
p2653
asI1325
(lp2654
g68
ag131
aS'qQ'
p2655
asI1326
(lp2656
g71
ag2
aS'qa'
p2657
asI1327
(lp2658
g71
ag3
aS'qA'
p2659
asI1328
(lp2660
g71
ag6
aS'qi'
p2661
asI1329
(lp2662
g71
ag9
aS'qI'
p2663
asI1330
(lp2664
g71
ag11
aS'qu'
p2665
asI1331
(lp2666
g71
ag14
aS'qU'
p2667
asI1332
(lp2668
g71
ag16
aS'qf'
p2669
asI1333
(lp2670
g71
ag21
aS'qU'
p2671
asI1334
(lp2672
g71
ag24
aS'qx'
p2673
asI1335
(lp2674
g71
ag7
aS'qe'
p2675
asI1336
(lp2676
g71
ag29
aS'qE'
p2677
asI1337
(lp2678
g71
ag12
aS'qo'
p2679
asI1338
(lp2680
g71
ag32
aS'qO'
p2681
asI1339
(lp2682
g71
ag35
aS'wk'
p2683
asI1340
(lp2684
g71
ag38
aS'wK'
p2685
asI1341
(lp2686
g71
ag41
aS'qg'
p2687
asI1342
(lp2688
g71
ag44
aS'qG'
p2689
asI1343
(lp2690
g71
ag47
aS'qN'
p2691
asI1344
(lp2692
g71
ag47
aS'RN'
p2693
asI1345
(lp2694
g71
ag50
aS'wc'
p2695
asI1346
(lp2696
g71
ag53
aS'wC'
p2697
asI1347
(lp2698
g71
ag56
aS'qj'
p2699
asI1348
(lp2700
g71
ag59
aS'qJ'
p2701
asI1349
(lp2702
g71
ag62
aS'qY'
p2703
asI1350
(lp2704
g71
ag62
aS'RY'
p2705
asI1351
(lp2706
g71
ag65
aS'ww'
p2707
asI1352
(lp2708
g71
ag68
aS'wW'
p2709
asI1353
(lp2710
g71
ag71
aS'qq'
p2711
asI1354
(lp2712
g71
ag74
aS'qQ'
p2713
asI1355
(lp2714
g71
ag77
aS'qR'
p2715
asI1356
(lp2716
g71
ag77
aS'RR'
p2717
asI1357
(lp2718
g71
ag80
aS'wt'
p2719
asI1358
(lp2720
g71
ag83
aS'wT'
p2721
asI1359
(lp2722
g71
ag86
aS'qd'
p2723
asI1360
(lp2724
g71
ag89
aS'qD'
p2725
asI1361
(lp2726
g71
ag92
aS'Rn'
p2727
asI1362
(lp2728
g71
ag92
aS'qn'
p2729
asI1363
(lp2730
g71
ag95
aS'wp'
p2731
asI1364
(lp2732
g71
ag98
aS'wP'
p2733
asI1365
(lp2734
g71
ag101
aS'qb'
p2735
asI1366
(lp2736
g71
ag104
aS'qB'
p2737
asI1367
(lp2738
g71
ag107
aS'qm'
p2739
asI1368
(lp2740
g71
ag107
aS'Rm'
p2741
asI1369
(lp2742
g71
ag110
aS'qy'
p2743
asI1370
(lp2744
g71
ag113
aS'qr'
p2745
asI1371
(lp2746
g71
ag116
aS'ql'
p2747
asI1372
(lp2748
g71
ag119
aS'qv'
p2749
asI1373
(lp2750
g71
ag122
aS'wS'
p2751
asI1374
(lp2752
g71
ag125
aS'wz'
p2753
asI1375
(lp2754
g71
ag128
aS'ws'
p2755
asI1376
(lp2756
g71
ag131
aS'qQ'
p2757
asI1377
(lp2758
g71
ag131
aS'qh'
p2759
asI1378
(lp2760
g74
ag2
aS'qa'
p2761
asI1379
(lp2762
g74
ag3
aS'qA'
p2763
asI1380
(lp2764
g74
ag6
aS'qi'
p2765
asI1381
(lp2766
g74
ag9
aS'qI'
p2767
asI1382
(lp2768
g74
ag11
aS'qu'
p2769
asI1383
(lp2770
g74
ag14
aS'qU'
p2771
asI1384
(lp2772
g74
ag16
aS'qf'
p2773
asI1385
(lp2774
g74
ag21
aS'qF'
p2775
asI1386
(lp2776
g74
ag24
aS'qx'
p2777
asI1387
(lp2778
g74
ag7
aS'qe'
p2779
asI1388
(lp2780
g74
ag29
aS'qE'
p2781
asI1389
(lp2782
g74
ag12
aS'qo'
p2783
asI1390
(lp2784
g74
ag32
aS'qO'
p2785
asI1391
(lp2786
g74
ag35
aS'wk'
p2787
asI1392
(lp2788
g74
ag38
aS'wK'
p2789
asI1393
(lp2790
g74
ag41
aS'qg'
p2791
asI1394
(lp2792
g74
ag44
aS'qG'
p2793
asI1395
(lp2794
g74
ag47
aS'qN'
p2795
asI1396
(lp2796
g74
ag47
aS'RN'
p2797
asI1397
(lp2798
g74
ag50
aS'wc'
p2799
asI1398
(lp2800
g74
ag53
aS'wC'
p2801
asI1399
(lp2802
g74
ag56
aS'qj'
p2803
asI1400
(lp2804
g74
ag59
aS'qJ'
p2805
asI1401
(lp2806
g74
ag62
aS'qY'
p2807
asI1402
(lp2808
g74
ag62
aS'RY'
p2809
asI1403
(lp2810
g74
ag65
aS'ww'
p2811
asI1404
(lp2812
g74
ag68
aS'wW'
p2813
asI1405
(lp2814
g74
ag71
aS'qq'
p2815
asI1406
(lp2816
g74
ag74
aS'qQ'
p2817
asI1407
(lp2818
g74
ag77
aS'qR'
p2819
asI1408
(lp2820
g74
ag77
aS'RR'
p2821
asI1409
(lp2822
g74
ag80
aS'wt'
p2823
asI1410
(lp2824
g74
ag83
aS'wT'
p2825
asI1411
(lp2826
g74
ag86
aS'qd'
p2827
asI1412
(lp2828
g74
ag89
aS'qD'
p2829
asI1413
(lp2830
g74
ag92
aS'Rn'
p2831
asI1414
(lp2832
g74
ag92
aS'qn'
p2833
asI1415
(lp2834
g74
ag95
aS'wp'
p2835
asI1416
(lp2836
g74
ag98
aS'wP'
p2837
asI1417
(lp2838
g74
ag101
aS'qb'
p2839
asI1418
(lp2840
g74
ag104
aS'qB'
p2841
asI1419
(lp2842
g74
ag107
aS'qm'
p2843
asI1420
(lp2844
g74
ag107
aS'Rm'
p2845
asI1421
(lp2846
g74
ag110
aS'qy'
p2847
asI1422
(lp2848
g74
ag113
aS'qr'
p2849
asI1423
(lp2850
g74
ag116
aS'ql'
p2851
asI1424
(lp2852
g74
ag119
aS'qv'
p2853
asI1425
(lp2854
g74
ag122
aS'wS'
p2855
asI1426
(lp2856
g74
ag125
aS'wz'
p2857
asI1427
(lp2858
g74
ag128
aS'ws'
p2859
asI1428
(lp2860
g74
ag131
aS'qh'
p2861
asI1429
(lp2862
g74
ag131
aS'qQ'
p2863
asI1430
(lp2864
g77
ag2
aS'Ra'
p2865
asI1431
(lp2866
g77
ag3
aS'RA'
p2867
asI1432
(lp2868
g77
ag6
aS'Ri'
p2869
asI1433
(lp2870
g77
ag9
aS'RI'
p2871
asI1434
(lp2872
g77
ag11
aS'Ru'
p2873
asI1435
(lp2874
g77
ag14
aS'RU'
p2875
asI1436
(lp2876
g77
ag16
aS'Rf'
p2877
asI1437
(lp2878
g77
ag21
aS'RF'
p2879
asI1438
(lp2880
g77
ag24
aS'Rx'
p2881
asI1439
(lp2882
g77
ag7
aS'Re'
p2883
asI1440
(lp2884
g77
ag29
aS'RE'
p2885
asI1441
(lp2886
g77
ag12
aS'Ro'
p2887
asI1442
(lp2888
g77
ag32
aS'RO'
p2889
asI1443
(lp2890
g77
ag35
aS'Rk'
p2891
asI1444
(lp2892
g77
ag38
aS'RK'
p2893
asI1445
(lp2894
g77
ag41
aS'Rg'
p2895
asI1446
(lp2896
g77
ag44
aS'RG'
p2897
asI1447
(lp2898
g77
ag47
aS'RN'
p2899
asI1448
(lp2900
g77
ag50
aS'Rc'
p2901
asI1449
(lp2902
g77
ag53
aS'RC'
p2903
asI1450
(lp2904
g77
ag56
aS'Rj'
p2905
asI1451
(lp2906
g77
ag59
aS'RJ'
p2907
asI1452
(lp2908
g77
ag62
aS'RY'
p2909
asI1453
(lp2910
g77
ag65
aS'Rw'
p2911
asI1454
(lp2912
g77
ag68
aS'RW'
p2913
asI1455
(lp2914
g77
ag71
aS'Rq'
p2915
asI1456
(lp2916
g77
ag74
aS'RQ'
p2917
asI1457
(lp2918
g77
ag77
aS'RR'
p2919
asI1458
(lp2920
g77
ag80
aS'Rt'
p2921
asI1459
(lp2922
g77
ag83
aS'RT'
p2923
asI1460
(lp2924
g77
ag86
aS'Rd'
p2925
asI1461
(lp2926
g77
ag89
aS'RD'
p2927
asI1462
(lp2928
g77
ag92
aS'RR'
p2929
asI1463
(lp2930
g77
ag95
aS'Rp'
p2931
asI1464
(lp2932
g77
ag98
aS'RP'
p2933
asI1465
(lp2934
g77
ag101
aS'Rb'
p2935
asI1466
(lp2936
g77
ag104
aS'RB'
p2937
asI1467
(lp2938
g77
ag107
aS'Rm'
p2939
asI1468
(lp2940
g77
ag110
aS'Ry'
p2941
asI1469
(lp2942
g77
ag113
aS'Rr'
p2943
asI1470
(lp2944
g77
ag116
aS'Rl'
p2945
asI1471
(lp2946
g77
ag119
aS'Rv'
p2947
asI1472
(lp2948
g77
ag122
aS'RwS'
p2949
asI1473
(lp2950
g77
ag122
aS'RWS'
p2951
asI1474
(lp2952
g77
ag122
aS'RS'
p2953
asI1475
(lp2954
g77
ag125
aS'Rwz'
p2955
asI1476
(lp2956
g77
ag125
aS'RWz'
p2957
asI1477
(lp2958
g77
ag125
aS'Rz'
p2959
asI1478
(lp2960
g77
ag128
aS'Rws'
p2961
asI1479
(lp2962
g77
ag128
aS'RWs'
p2963
asI1480
(lp2964
g77
ag128
aS'Rs'
p2965
asI1481
(lp2966
g77
ag131
aS'Rh'
p2967
asI1482
(lp2968
g80
ag2
aS'da'
p2969
asI1483
(lp2970
g80
ag3
aS'dA'
p2971
asI1484
(lp2972
g80
ag6
aS'di'
p2973
asI1485
(lp2974
g80
ag9
aS'dI'
p2975
asI1486
(lp2976
g80
ag11
aS'du'
p2977
asI1487
(lp2978
g80
ag14
aS'dU'
p2979
asI1488
(lp2980
g80
ag16
aS'df'
p2981
asI1489
(lp2982
g80
ag21
aS'dF'
p2983
asI1490
(lp2984
g80
ag24
aS'dx'
p2985
asI1491
(lp2986
g80
ag7
aS'de'
p2987
asI1492
(lp2988
g80
ag29
aS'dE'
p2989
asI1493
(lp2990
g80
ag12
aS'do'
p2991
asI1494
(lp2992
g80
ag32
aS'dO'
p2993
asI1495
(lp2994
g80
ag35
aS'tk'
p2995
asI1496
(lp2996
g80
ag38
aS'tK'
p2997
asI1497
(lp2998
g80
ag41
aS'dg'
p2999
asI1498
(lp3000
g80
ag44
aS'dG'
p3001
asI1499
(lp3002
g80
ag47
aS'dN'
p3003
asI1500
(lp3004
g80
ag47
aS'nN'
p3005
asI1501
(lp3006
g80
ag50
aS'cc'
p3007
asI1502
(lp3008
g80
ag53
aS'cC'
p3009
asI1503
(lp3010
g80
ag56
aS'jj'
p3011
asI1504
(lp3012
g80
ag59
aS'jJ'
p3013
asI1505
(lp3014
g80
ag62
aS'jY'
p3015
asI1506
(lp3016
g80
ag62
aS'YY'
p3017
asI1507
(lp3018
g80
ag65
aS'ww'
p3019
asI1508
(lp3020
g80
ag68
aS'wW'
p3021
asI1509
(lp3022
g80
ag71
aS'qq'
p3023
asI1510
(lp3024
g80
ag74
aS'qQ'
p3025
asI1511
(lp3026
g80
ag77
aS'qR'
p3027
asI1512
(lp3028
g80
ag77
aS'RR'
p3029
asI1513
(lp3030
g80
ag80
aS'tt'
p3031
asI1514
(lp3032
g80
ag83
aS'tT'
p3033
asI1515
(lp3034
g80
ag86
aS'dd'
p3035
asI1516
(lp3036
g80
ag89
aS'dD'
p3037
asI1517
(lp3038
g80
ag92
aS'dn'
p3039
asI1518
(lp3040
g80
ag92
aS'nn'
p3041
asI1519
(lp3042
g80
ag95
aS'tp'
p3043
asI1520
(lp3044
g80
ag98
aS'tP'
p3045
asI1521
(lp3046
g80
ag101
aS'db'
p3047
asI1522
(lp3048
g80
ag104
aS'dB'
p3049
asI1523
(lp3050
g80
ag107
aS'dm'
p3051
asI1524
(lp3052
g80
ag107
aS'nm'
p3053
asI1525
(lp3054
g80
ag110
aS'dy'
p3055
asI1526
(lp3056
g80
ag113
aS'dr'
p3057
asI1527
(lp3058
g80
ag116
aS'll'
p3059
asI1528
(lp3060
g80
ag119
aS'dv'
p3061
asI1529
(lp3062
g80
ag122
aS'cS'
p3063
asI1530
(lp3064
g80
ag125
aS'tz'
p3065
asI1531
(lp3066
g80
ag128
aS'ts'
p3067
asI1532
(lp3068
g80
ag131
aS'dh'
p3069
asI1533
(lp3070
g80
ag131
aS'dD'
p3071
asI1534
(lp3072
g83
ag2
aS'da'
p3073
asI1535
(lp3074
g83
ag3
aS'dA'
p3075
asI1536
(lp3076
g83
ag6
aS'di'
p3077
asI1537
(lp3078
g83
ag9
aS'dI'
p3079
asI1538
(lp3080
g83
ag11
aS'du'
p3081
asI1539
(lp3082
g83
ag14
aS'dU'
p3083
asI1540
(lp3084
g83
ag16
aS'df'
p3085
asI1541
(lp3086
g83
ag21
aS'dF'
p3087
asI1542
(lp3088
g83
ag24
aS'dx'
p3089
asI1543
(lp3090
g83
ag7
aS'de'
p3091
asI1544
(lp3092
g83
ag29
aS'dE'
p3093
asI1545
(lp3094
g83
ag12
aS'do'
p3095
asI1546
(lp3096
g83
ag32
aS'dO'
p3097
asI1547
(lp3098
g83
ag35
aS'tk'
p3099
asI1548
(lp3100
g83
ag38
aS'tK'
p3101
asI1549
(lp3102
g83
ag41
aS'dg'
p3103
asI1550
(lp3104
g83
ag44
aS'dG'
p3105
asI1551
(lp3106
g83
ag47
aS'dN'
p3107
asI1552
(lp3108
g83
ag47
aS'nN'
p3109
asI1553
(lp3110
g83
ag50
aS'cc'
p3111
asI1554
(lp3112
g83
ag53
aS'cC'
p3113
asI1555
(lp3114
g83
ag56
aS'jj'
p3115
asI1556
(lp3116
g83
ag59
aS'jJ'
p3117
asI1557
(lp3118
g83
ag62
aS'jY'
p3119
asI1558
(lp3120
g83
ag62
aS'YY'
p3121
asI1559
(lp3122
g83
ag65
aS'ww'
p3123
asI1560
(lp3124
g83
ag68
aS'wW'
p3125
asI1561
(lp3126
g83
ag71
aS'qq'
p3127
asI1562
(lp3128
g83
ag74
aS'qQ'
p3129
asI1563
(lp3130
g83
ag77
aS'qR'
p3131
asI1564
(lp3132
g83
ag77
aS'RR'
p3133
asI1565
(lp3134
g83
ag80
aS'tt'
p3135
asI1566
(lp3136
g83
ag83
aS'tT'
p3137
asI1567
(lp3138
g83
ag86
aS'dd'
p3139
asI1568
(lp3140
g83
ag89
aS'dD'
p3141
asI1569
(lp3142
g83
ag92
aS'dn'
p3143
asI1570
(lp3144
g83
ag92
aS'nn'
p3145
asI1571
(lp3146
g83
ag95
aS'tp'
p3147
asI1572
(lp3148
g83
ag98
aS'tP'
p3149
asI1573
(lp3150
g83
ag101
aS'db'
p3151
asI1574
(lp3152
g83
ag104
aS'dB'
p3153
asI1575
(lp3154
g83
ag107
aS'dm'
p3155
asI1576
(lp3156
g83
ag107
aS'nm'
p3157
asI1577
(lp3158
g83
ag110
aS'dy'
p3159
asI1578
(lp3160
g83
ag113
aS'dr'
p3161
asI1579
(lp3162
g83
ag116
aS'll'
p3163
asI1580
(lp3164
g83
ag119
aS'dv'
p3165
asI1581
(lp3166
g83
ag122
aS'cS'
p3167
asI1582
(lp3168
g83
ag125
aS'tz'
p3169
asI1583
(lp3170
g83
ag128
aS'ts'
p3171
asI1584
(lp3172
g83
ag131
aS'dh'
p3173
asI1585
(lp3174
g83
ag131
aS'dD'
p3175
asI1586
(lp3176
g86
ag2
aS'da'
p3177
asI1587
(lp3178
g86
ag3
aS'dA'
p3179
asI1588
(lp3180
g86
ag6
aS'di'
p3181
asI1589
(lp3182
g86
ag9
aS'dI'
p3183
asI1590
(lp3184
g86
ag11
aS'du'
p3185
asI1591
(lp3186
g86
ag14
aS'dU'
p3187
asI1592
(lp3188
g86
ag16
aS'df'
p3189
asI1593
(lp3190
g86
ag21
aS'dF'
p3191
asI1594
(lp3192
g86
ag24
aS'dx'
p3193
asI1595
(lp3194
g86
ag7
aS'de'
p3195
asI1596
(lp3196
g86
ag29
aS'dE'
p3197
asI1597
(lp3198
g86
ag12
aS'do'
p3199
asI1598
(lp3200
g86
ag32
aS'dO'
p3201
asI1599
(lp3202
g86
ag35
aS'tk'
p3203
asI1600
(lp3204
g86
ag38
aS'tK'
p3205
asI1601
(lp3206
g86
ag41
aS'dg'
p3207
asI1602
(lp3208
g86
ag44
aS'dG'
p3209
asI1603
(lp3210
g86
ag47
aS'dN'
p3211
asI1604
(lp3212
g86
ag47
aS'nN'
p3213
asI1605
(lp3214
g86
ag50
aS'cc'
p3215
asI1606
(lp3216
g86
ag53
aS'cC'
p3217
asI1607
(lp3218
g86
ag56
aS'jj'
p3219
asI1608
(lp3220
g86
ag59
aS'jJ'
p3221
asI1609
(lp3222
g86
ag62
aS'jY'
p3223
asI1610
(lp3224
g86
ag62
aS'nY'
p3225
asI1611
(lp3226
g86
ag65
aS'ww'
p3227
asI1612
(lp3228
g86
ag68
aS'wW'
p3229
asI1613
(lp3230
g86
ag71
aS'qq'
p3231
asI1614
(lp3232
g86
ag74
aS'qQ'
p3233
asI1615
(lp3234
g86
ag77
aS'RR'
p3235
asI1616
(lp3236
g86
ag77
aS'qR'
p3237
asI1617
(lp3238
g86
ag80
aS'tt'
p3239
asI1618
(lp3240
g86
ag83
aS'tT'
p3241
asI1619
(lp3242
g86
ag86
aS'dd'
p3243
asI1620
(lp3244
g86
ag89
aS'dD'
p3245
asI1621
(lp3246
g86
ag92
aS'dn'
p3247
asI1622
(lp3248
g86
ag92
aS'nn'
p3249
asI1623
(lp3250
g86
ag95
aS'tp'
p3251
asI1624
(lp3252
g86
ag98
aS'tP'
p3253
asI1625
(lp3254
g86
ag101
aS'db'
p3255
asI1626
(lp3256
g86
ag104
aS'dB'
p3257
asI1627
(lp3258
g86
ag107
aS'dm'
p3259
asI1628
(lp3260
g86
ag107
aS'nm'
p3261
asI1629
(lp3262
g86
ag110
aS'dy'
p3263
asI1630
(lp3264
g86
ag113
aS'dr'
p3265
asI1631
(lp3266
g86
ag116
aS'll'
p3267
asI1632
(lp3268
g86
ag119
aS'dv'
p3269
asI1633
(lp3270
g86
ag122
aS'cS'
p3271
asI1634
(lp3272
g86
ag125
aS'tz'
p3273
asI1635
(lp3274
g86
ag128
aS'ts'
p3275
asI1636
(lp3276
g86
ag131
aS'dD'
p3277
asI1637
(lp3278
g86
ag131
aS'dh'
p3279
asI1638
(lp3280
g89
ag2
aS'da'
p3281
asI1639
(lp3282
g89
ag3
aS'dA'
p3283
asI1640
(lp3284
g89
ag6
aS'di'
p3285
asI1641
(lp3286
g89
ag9
aS'dI'
p3287
asI1642
(lp3288
g89
ag11
aS'du'
p3289
asI1643
(lp3290
g89
ag14
aS'dU'
p3291
asI1644
(lp3292
g89
ag16
aS'df'
p3293
asI1645
(lp3294
g89
ag21
aS'dF'
p3295
asI1646
(lp3296
g89
ag24
aS'dx'
p3297
asI1647
(lp3298
g89
ag7
aS'de'
p3299
asI1648
(lp3300
g89
ag29
aS'dE'
p3301
asI1649
(lp3302
g89
ag12
aS'do'
p3303
asI1650
(lp3304
g89
ag32
aS'dO'
p3305
asI1651
(lp3306
g89
ag35
aS'tk'
p3307
asI1652
(lp3308
g89
ag38
aS'tK'
p3309
asI1653
(lp3310
g89
ag41
aS'dg'
p3311
asI1654
(lp3312
g89
ag44
aS'dG'
p3313
asI1655
(lp3314
g89
ag47
aS'dN'
p3315
asI1656
(lp3316
g89
ag47
aS'nN'
p3317
asI1657
(lp3318
g89
ag50
aS'cc'
p3319
asI1658
(lp3320
g89
ag53
aS'cC'
p3321
asI1659
(lp3322
g89
ag56
aS'jj'
p3323
asI1660
(lp3324
g89
ag59
aS'jJ'
p3325
asI1661
(lp3326
g89
ag62
aS'jY'
p3327
asI1662
(lp3328
g89
ag62
aS'nY'
p3329
asI1663
(lp3330
g89
ag65
aS'ww'
p3331
asI1664
(lp3332
g89
ag68
aS'wW'
p3333
asI1665
(lp3334
g89
ag71
aS'qq'
p3335
asI1666
(lp3336
g89
ag74
aS'qQ'
p3337
asI1667
(lp3338
g89
ag77
aS'qR'
p3339
asI1668
(lp3340
g89
ag77
aS'RR'
p3341
asI1669
(lp3342
g89
ag80
aS'tt'
p3343
asI1670
(lp3344
g89
ag83
aS'tT'
p3345
asI1671
(lp3346
g89
ag86
aS'dd'
p3347
asI1672
(lp3348
g89
ag89
aS'dD'
p3349
asI1673
(lp3350
g89
ag92
aS'dn'
p3351
asI1674
(lp3352
g89
ag92
aS'nn'
p3353
asI1675
(lp3354
g89
ag95
aS'tp'
p3355
asI1676
(lp3356
g89
ag98
aS'tP'
p3357
asI1677
(lp3358
g89
ag101
aS'db'
p3359
asI1678
(lp3360
g89
ag104
aS'dB'
p3361
asI1679
(lp3362
g89
ag107
aS'dm'
p3363
asI1680
(lp3364
g89
ag107
aS'nm'
p3365
asI1681
(lp3366
g89
ag110
aS'dy'
p3367
asI1682
(lp3368
g89
ag113
aS'dr'
p3369
asI1683
(lp3370
g89
ag116
aS'll'
p3371
asI1684
(lp3372
g89
ag119
aS'dv'
p3373
asI1685
(lp3374
g89
ag122
aS'cS'
p3375
asI1686
(lp3376
g89
ag125
aS'tz'
p3377
asI1687
(lp3378
g89
ag128
aS'ts'
p3379
asI1688
(lp3380
g89
ag131
aS'dh'
p3381
asI1689
(lp3382
g89
ag131
aS'dD'
p3383
asI1690
(lp3384
g92
ag2
aS'na'
p3385
asI1691
(lp3386
g92
ag3
aS'nA'
p3387
asI1692
(lp3388
g92
ag6
aS'ni'
p3389
asI1693
(lp3390
g92
ag9
aS'nI'
p3391
asI1694
(lp3392
g92
ag11
aS'nu'
p3393
asI1695
(lp3394
g92
ag14
aS'nU'
p3395
asI1696
(lp3396
g92
ag16
aS'nf'
p3397
asI1697
(lp3398
g92
ag21
aS'nF'
p3399
asI1698
(lp3400
g92
ag24
aS'nx'
p3401
asI1699
(lp3402
g92
ag7
aS'ne'
p3403
asI1700
(lp3404
g92
ag29
aS'nE'
p3405
asI1701
(lp3406
g92
ag12
aS'no'
p3407
asI1702
(lp3408
g92
ag32
aS'nO'
p3409
asI1703
(lp3410
g92
ag35
aS'nk'
p3411
asI1704
(lp3412
g92
ag38
aS'nK'
p3413
asI1705
(lp3414
g92
ag41
aS'ng'
p3415
asI1706
(lp3416
g92
ag44
aS'nG'
p3417
asI1707
(lp3418
g92
ag47
aS'nN'
p3419
asI1708
(lp3420
g92
ag50
aS'nc'
p3421
asI1709
(lp3422
g92
ag53
aS'nC'
p3423
asI1710
(lp3424
g92
ag56
aS'Yj'
p3425
asI1711
(lp3426
g92
ag59
aS'nJ'
p3427
asI1712
(lp3428
g92
ag62
aS'nY'
p3429
asI1713
(lp3430
g92
ag65
aS'nw'
p3431
asI1714
(lp3432
g92
ag68
aS'nW'
p3433
asI1715
(lp3434
g92
ag71
aS'nq'
p3435
asI1716
(lp3436
g92
ag74
aS'RQ'
p3437
asI1717
(lp3438
g92
ag77
aS'nR'
p3439
asI1718
(lp3440
g92
ag80
aS'nt'
p3441
asI1719
(lp3442
g92
ag83
aS'nT'
p3443
asI1720
(lp3444
g92
ag86
aS'nd'
p3445
asI1721
(lp3446
g92
ag89
aS'nD'
p3447
asI1722
(lp3448
g92
ag92
aS'nn'
p3449
asI1723
(lp3450
g92
ag95
aS'np'
p3451
asI1724
(lp3452
g92
ag98
aS'nP'
p3453
asI1725
(lp3454
g92
ag101
aS'nb'
p3455
asI1726
(lp3456
g92
ag104
aS'nB'
p3457
asI1727
(lp3458
g92
ag107
aS'nm'
p3459
asI1728
(lp3460
g92
ag110
aS'ny'
p3461
asI1729
(lp3462
g92
ag113
aS'nr'
p3463
asI1730
(lp3464
g92
ag116
aS'la~l'
p3465
asI1731
(lp3466
g92
ag119
aS'nv'
p3467
asI1732
(lp3468
g92
ag122
aS'YcS'
p3469
asI1733
(lp3470
g92
ag122
aS'YS'
p3471
asI1734
(lp3472
g92
ag125
aS'nz'
p3473
asI1735
(lp3474
g92
ag128
aS'nts'
p3475
asI1736
(lp3476
g92
ag128
aS'ns'
p3477
asI1737
(lp3478
g92
ag131
aS'nh'
p3479
asI1738
(lp3480
g107
ag35
aS'Nk'
p3481
asI1739
(lp3482
g107
ag35
aS'M k'
p3483
asI1740
(lp3484
g107
ag38
aS'NK'
p3485
asI1741
(lp3486
g107
ag38
aS'M K'
p3487
asI1742
(lp3488
g107
ag41
aS'Ng'
p3489
asI1743
(lp3490
g107
ag41
aS'M g'
p3491
asI1744
(lp3492
g107
ag44
aS'NG'
p3493
asI1745
(lp3494
g107
ag44
aS'M G'
p3495
asI1746
(lp3496
g107
ag47
aS'NN'
p3497
asI1747
(lp3498
g107
ag47
aS'M N'
p3499
asI1748
(lp3500
g107
ag50
aS'Yc'
p3501
asI1749
(lp3502
g107
ag50
aS'M c'
p3503
asI1750
(lp3504
g107
ag53
aS'YC'
p3505
asI1751
(lp3506
g107
ag53
aS'M C'
p3507
asI1752
(lp3508
g107
ag56
aS'Yj'
p3509
asI1753
(lp3510
g107
ag56
aS'M j'
p3511
asI1754
(lp3512
g107
ag59
aS'YJ'
p3513
asI1755
(lp3514
g107
ag59
aS'M J'
p3515
asI1756
(lp3516
g107
ag62
aS'YY'
p3517
asI1757
(lp3518
g107
ag62
aS'M Y'
p3519
asI1758
(lp3520
g107
ag65
aS'Rw'
p3521
asI1759
(lp3522
g107
ag65
aS'M w'
p3523
asI1760
(lp3524
g107
ag68
aS'RW'
p3525
asI1761
(lp3526
g107
ag68
aS'M W'
p3527
asI1762
(lp3528
g107
ag71
aS'Rq'
p3529
asI1763
(lp3530
g107
ag71
aS'M q'
p3531
asI1764
(lp3532
g107
ag74
aS'RQ'
p3533
asI1765
(lp3534
g107
ag74
aS'M Q'
p3535
asI1766
(lp3536
g107
ag77
aS'RR'
p3537
asI1767
(lp3538
g107
ag77
aS'M R'
p3539
asI1768
(lp3540
g107
ag80
aS'nt'
p3541
asI1769
(lp3542
g107
ag80
aS'M t'
p3543
asI1770
(lp3544
g107
ag83
aS'nT'
p3545
asI1771
(lp3546
g107
ag83
aS'M T'
p3547
asI1772
(lp3548
g107
ag86
aS'nd'
p3549
asI1773
(lp3550
g107
ag86
aS'M d'
p3551
asI1774
(lp3552
g107
ag89
aS'nD'
p3553
asI1775
(lp3554
g107
ag89
aS'M D'
p3555
asI1776
(lp3556
g107
ag92
aS'nn'
p3557
asI1777
(lp3558
g107
ag92
aS'M n'
p3559
asI1778
(lp3560
g107
ag95
aS'mp'
p3561
asI1779
(lp3562
g107
ag95
aS'M p'
p3563
asI1780
(lp3564
g107
ag98
aS'mP'
p3565
asI1781
(lp3566
g107
ag98
aS'M P'
p3567
asI1782
(lp3568
g107
ag101
aS'mb'
p3569
asI1783
(lp3570
g107
ag101
aS'M b'
p3571
asI1784
(lp3572
g107
ag104
aS'mB'
p3573
asI1785
(lp3574
g107
ag104
aS'M B'
p3575
asI1786
(lp3576
g107
ag107
aS'mm'
p3577
asI1787
(lp3578
g107
ag107
aS'M m'
p3579
asI1788
(lp3580
g107
ag110
aS'ya~y'
p3581
asI1789
(lp3582
g107
ag110
aS'M y'
p3583
asI1790
(lp3584
g107
ag113
aS'M r'
p3585
asI1791
(lp3586
g107
ag116
aS'~ll'
p3587
asI1792
(lp3588
g107
ag116
aS'M l'
p3589
asI1793
(lp3590
g107
ag119
aS'va~v'
p3591
asI1794
(lp3592
g107
ag119
aS'M v'
p3593
asI1795
(lp3594
g107
ag122
aS'M S'
p3595
asI1796
(lp3596
g107
ag125
aS'M z'
p3597
asI1797
(lp3598
g107
ag128
aS'M s'
p3599
asI1798
(lp3600
g107
ag131
aS'M h'
p3601
asI1799
(lp3602
g95
ag2
aS'ba'
p3603
asI1800
(lp3604
g95
ag3
aS'bA'
p3605
asI1801
(lp3606
g95
ag6
aS'bi'
p3607
asI1802
(lp3608
g95
ag9
aS'bI'
p3609
asI1803
(lp3610
g95
ag11
aS'bu'
p3611
asI1804
(lp3612
g95
ag14
aS'bU'
p3613
asI1805
(lp3614
g95
ag16
aS'bf'
p3615
asI1806
(lp3616
g95
ag21
aS'bF'
p3617
asI1807
(lp3618
g95
ag24
aS'bx'
p3619
asI1808
(lp3620
g95
ag7
aS'be'
p3621
asI1809
(lp3622
g95
ag29
aS'bE'
p3623
asI1810
(lp3624
g95
ag12
aS'bo'
p3625
asI1811
(lp3626
g95
ag32
aS'bO'
p3627
asI1812
(lp3628
g95
ag35
aS'pk'
p3629
asI1813
(lp3630
g95
ag38
aS'pK'
p3631
asI1814
(lp3632
g95
ag41
aS'bg'
p3633
asI1815
(lp3634
g95
ag44
aS'bG'
p3635
asI1816
(lp3636
g95
ag47
aS'bN'
p3637
asI1817
(lp3638
g95
ag47
aS'mN'
p3639
asI1818
(lp3640
g95
ag50
aS'pc'
p3641
asI1819
(lp3642
g95
ag53
aS'pC'
p3643
asI1820
(lp3644
g95
ag56
aS'bj'
p3645
asI1821
(lp3646
g95
ag59
aS'bJ'
p3647
asI1822
(lp3648
g95
ag62
aS'bY'
p3649
asI1823
(lp3650
g95
ag62
aS'mY'
p3651
asI1824
(lp3652
g95
ag65
aS'pw'
p3653
asI1825
(lp3654
g95
ag68
aS'pW'
p3655
asI1826
(lp3656
g95
ag71
aS'bq'
p3657
asI1827
(lp3658
g95
ag74
aS'bQ'
p3659
asI1828
(lp3660
g95
ag77
aS'bR'
p3661
asI1829
(lp3662
g95
ag77
aS'mR'
p3663
asI1830
(lp3664
g95
ag80
aS'pt'
p3665
asI1831
(lp3666
g95
ag83
aS'pT'
p3667
asI1832
(lp3668
g95
ag86
aS'bd'
p3669
asI1833
(lp3670
g95
ag89
aS'bD'
p3671
asI1834
(lp3672
g95
ag92
aS'bn'
p3673
asI1835
(lp3674
g95
ag92
aS'mn'
p3675
asI1836
(lp3676
g95
ag95
aS'pp'
p3677
asI1837
(lp3678
g95
ag98
aS'pP'
p3679
asI1838
(lp3680
g95
ag101
aS'bb'
p3681
asI1839
(lp3682
g95
ag104
aS'bB'
p3683
asI1840
(lp3684
g95
ag107
aS'bm'
p3685
asI1841
(lp3686
g95
ag107
aS'mm'
p3687
asI1842
(lp3688
g95
ag110
aS'by'
p3689
asI1843
(lp3690
g95
ag113
aS'br'
p3691
asI1844
(lp3692
g95
ag116
aS'bl'
p3693
asI1845
(lp3694
g95
ag119
aS'bv'
p3695
asI1846
(lp3696
g95
ag122
aS'pS'
p3697
asI1847
(lp3698
g95
ag125
aS'pz'
p3699
asI1848
(lp3700
g95
ag128
aS'ps'
p3701
asI1849
(lp3702
g95
ag131
aS'bh'
p3703
asI1850
(lp3704
g95
ag131
aS'bB'
p3705
asI1851
(lp3706
g98
ag2
aS'ba'
p3707
asI1852
(lp3708
g98
ag3
aS'bA'
p3709
asI1853
(lp3710
g98
ag6
aS'bi'
p3711
asI1854
(lp3712
g98
ag9
aS'bI'
p3713
asI1855
(lp3714
g98
ag11
aS'bu'
p3715
asI1856
(lp3716
g98
ag14
aS'bU'
p3717
asI1857
(lp3718
g98
ag16
aS'bf'
p3719
asI1858
(lp3720
g98
ag21
aS'bF'
p3721
asI1859
(lp3722
g98
ag24
aS'bx'
p3723
asI1860
(lp3724
g98
ag7
aS'be'
p3725
asI1861
(lp3726
g98
ag29
aS'bE'
p3727
asI1862
(lp3728
g98
ag12
aS'bo'
p3729
asI1863
(lp3730
g98
ag32
aS'bO'
p3731
asI1864
(lp3732
g98
ag35
aS'pk'
p3733
asI1865
(lp3734
g98
ag38
aS'pK'
p3735
asI1866
(lp3736
g98
ag41
aS'bg'
p3737
asI1867
(lp3738
g98
ag44
aS'bG'
p3739
asI1868
(lp3740
g98
ag47
aS'bN'
p3741
asI1869
(lp3742
g98
ag47
aS'mN'
p3743
asI1870
(lp3744
g98
ag50
aS'pc'
p3745
asI1871
(lp3746
g98
ag53
aS'pC'
p3747
asI1872
(lp3748
g98
ag56
aS'bj'
p3749
asI1873
(lp3750
g98
ag59
aS'bJ'
p3751
asI1874
(lp3752
g98
ag62
aS'bY'
p3753
asI1875
(lp3754
g98
ag62
aS'mY'
p3755
asI1876
(lp3756
g98
ag65
aS'pw'
p3757
asI1877
(lp3758
g98
ag68
aS'pW'
p3759
asI1878
(lp3760
g98
ag71
aS'bq'
p3761
asI1879
(lp3762
g98
ag74
aS'bQ'
p3763
asI1880
(lp3764
g98
ag77
aS'bR'
p3765
asI1881
(lp3766
g98
ag77
aS'mR'
p3767
asI1882
(lp3768
g98
ag80
aS'pt'
p3769
asI1883
(lp3770
g98
ag83
aS'pT'
p3771
asI1884
(lp3772
g98
ag86
aS'bd'
p3773
asI1885
(lp3774
g98
ag89
aS'bD'
p3775
asI1886
(lp3776
g98
ag92
aS'bn'
p3777
asI1887
(lp3778
g98
ag92
aS'mn'
p3779
asI1888
(lp3780
g98
ag95
aS'pp'
p3781
asI1889
(lp3782
g98
ag98
aS'pP'
p3783
asI1890
(lp3784
g98
ag101
aS'bb'
p3785
asI1891
(lp3786
g98
ag104
aS'bB'
p3787
asI1892
(lp3788
g98
ag107
aS'bm'
p3789
asI1893
(lp3790
g98
ag107
aS'mm'
p3791
asI1894
(lp3792
g98
ag110
aS'by'
p3793
asI1895
(lp3794
g98
ag113
aS'br'
p3795
asI1896
(lp3796
g98
ag116
aS'bl'
p3797
asI1897
(lp3798
g98
ag119
aS'bv'
p3799
asI1898
(lp3800
g98
ag122
aS'pS'
p3801
asI1899
(lp3802
g98
ag125
aS'pz'
p3803
asI1900
(lp3804
g98
ag128
aS'ps'
p3805
asI1901
(lp3806
g98
ag131
aS'bh'
p3807
asI1902
(lp3808
g98
ag131
aS'bB'
p3809
asI1903
(lp3810
g101
ag2
aS'ba'
p3811
asI1904
(lp3812
g101
ag3
aS'bA'
p3813
asI1905
(lp3814
g101
ag6
aS'bi'
p3815
asI1906
(lp3816
g101
ag9
aS'bI'
p3817
asI1907
(lp3818
g101
ag11
aS'bu'
p3819
asI1908
(lp3820
g101
ag14
aS'bU'
p3821
asI1909
(lp3822
g101
ag16
aS'bf'
p3823
asI1910
(lp3824
g101
ag21
aS'bF'
p3825
asI1911
(lp3826
g101
ag24
aS'bx'
p3827
asI1912
(lp3828
g101
ag7
aS'be'
p3829
asI1913
(lp3830
g101
ag29
aS'bE'
p3831
asI1914
(lp3832
g101
ag12
aS'bo'
p3833
asI1915
(lp3834
g101
ag32
aS'bO'
p3835
asI1916
(lp3836
g101
ag35
aS'pk'
p3837
asI1917
(lp3838
g101
ag38
aS'pK'
p3839
asI1918
(lp3840
g101
ag41
aS'bg'
p3841
asI1919
(lp3842
g101
ag44
aS'bG'
p3843
asI1920
(lp3844
g101
ag47
aS'bN'
p3845
asI1921
(lp3846
g101
ag47
aS'mN'
p3847
asI1922
(lp3848
g101
ag50
aS'pc'
p3849
asI1923
(lp3850
g101
ag53
aS'pC'
p3851
asI1924
(lp3852
g101
ag56
aS'bj'
p3853
asI1925
(lp3854
g101
ag59
aS'bJ'
p3855
asI1926
(lp3856
g101
ag62
aS'bY'
p3857
asI1927
(lp3858
g101
ag62
aS'mY'
p3859
asI1928
(lp3860
g101
ag65
aS'pw'
p3861
asI1929
(lp3862
g101
ag68
aS'pW'
p3863
asI1930
(lp3864
g101
ag71
aS'bq'
p3865
asI1931
(lp3866
g101
ag74
aS'bQ'
p3867
asI1932
(lp3868
g101
ag77
aS'bR'
p3869
asI1933
(lp3870
g101
ag77
aS'mR'
p3871
asI1934
(lp3872
g101
ag80
aS'pt'
p3873
asI1935
(lp3874
g101
ag83
aS'pT'
p3875
asI1936
(lp3876
g101
ag86
aS'bd'
p3877
asI1937
(lp3878
g101
ag89
aS'bD'
p3879
asI1938
(lp3880
g101
ag92
aS'bn'
p3881
asI1939
(lp3882
g101
ag92
aS'mn'
p3883
asI1940
(lp3884
g101
ag95
aS'pp'
p3885
asI1941
(lp3886
g101
ag98
aS'pP'
p3887
asI1942
(lp3888
g101
ag101
aS'bb'
p3889
asI1943
(lp3890
g101
ag104
aS'bB'
p3891
asI1944
(lp3892
g101
ag107
aS'bm'
p3893
asI1945
(lp3894
g101
ag107
aS'mm'
p3895
asI1946
(lp3896
g101
ag110
aS'by'
p3897
asI1947
(lp3898
g101
ag113
aS'br'
p3899
asI1948
(lp3900
g101
ag116
aS'bl'
p3901
asI1949
(lp3902
g101
ag119
aS'bv'
p3903
asI1950
(lp3904
g101
ag122
aS'pS'
p3905
asI1951
(lp3906
g101
ag125
aS'pz'
p3907
asI1952
(lp3908
g101
ag128
aS'ps'
p3909
asI1953
(lp3910
g101
ag131
aS'bB'
p3911
asI1954
(lp3912
g101
ag131
aS'bh'
p3913
asI1955
(lp3914
g104
ag2
aS'ba'
p3915
asI1956
(lp3916
g104
ag3
aS'bA'
p3917
asI1957
(lp3918
g104
ag6
aS'bi'
p3919
asI1958
(lp3920
g104
ag9
aS'bI'
p3921
asI1959
(lp3922
g104
ag11
aS'bu'
p3923
asI1960
(lp3924
g104
ag14
aS'bU'
p3925
asI1961
(lp3926
g104
ag16
aS'bf'
p3927
asI1962
(lp3928
g104
ag21
aS'bF'
p3929
asI1963
(lp3930
g104
ag24
aS'bx'
p3931
asI1964
(lp3932
g104
ag7
aS'be'
p3933
asI1965
(lp3934
g104
ag29
aS'bE'
p3935
asI1966
(lp3936
g104
ag12
aS'bo'
p3937
asI1967
(lp3938
g104
ag32
aS'bO'
p3939
asI1968
(lp3940
g104
ag35
aS'pk'
p3941
asI1969
(lp3942
g104
ag38
aS'pK'
p3943
asI1970
(lp3944
g104
ag41
aS'bg'
p3945
asI1971
(lp3946
g104
ag44
aS'bG'
p3947
asI1972
(lp3948
g104
ag47
aS'bN'
p3949
asI1973
(lp3950
g104
ag47
aS'mN'
p3951
asI1974
(lp3952
g104
ag50
aS'pc'
p3953
asI1975
(lp3954
g104
ag53
aS'pC'
p3955
asI1976
(lp3956
g104
ag56
aS'bj'
p3957
asI1977
(lp3958
g104
ag59
aS'bJ'
p3959
asI1978
(lp3960
g104
ag62
aS'bY'
p3961
asI1979
(lp3962
g104
ag62
aS'mY'
p3963
asI1980
(lp3964
g104
ag65
aS'pw'
p3965
asI1981
(lp3966
g104
ag68
aS'pW'
p3967
asI1982
(lp3968
g104
ag71
aS'bq'
p3969
asI1983
(lp3970
g104
ag74
aS'bQ'
p3971
asI1984
(lp3972
g104
ag77
aS'bR'
p3973
asI1985
(lp3974
g104
ag77
aS'mR'
p3975
asI1986
(lp3976
g104
ag80
aS'pt'
p3977
asI1987
(lp3978
g104
ag83
aS'pT'
p3979
asI1988
(lp3980
g104
ag86
aS'bd'
p3981
asI1989
(lp3982
g104
ag89
aS'bD'
p3983
asI1990
(lp3984
g104
ag92
aS'bn'
p3985
asI1991
(lp3986
g104
ag92
aS'mn'
p3987
asI1992
(lp3988
g104
ag95
aS'pp'
p3989
asI1993
(lp3990
g104
ag98
aS'pP'
p3991
asI1994
(lp3992
g104
ag101
aS'bb'
p3993
asI1995
(lp3994
g104
ag104
aS'bB'
p3995
asI1996
(lp3996
g104
ag107
aS'bm'
p3997
asI1997
(lp3998
g104
ag107
aS'mm'
p3999
asI1998
(lp4000
g104
ag110
aS'by'
p4001
asI1999
(lp4002
g104
ag113
aS'br'
p4003
asI2000
(lp4004
g104
ag116
aS'bl'
p4005
asI2001
(lp4006
g104
ag119
aS'bv'
p4007
asI2002
(lp4008
g104
ag122
aS'pS'
p4009
asI2003
(lp4010
g104
ag125
aS'pz'
p4011
asI2004
(lp4012
g104
ag128
aS'ps'
p4013
asI2005
(lp4014
g104
ag131
aS'bh'
p4015
asI2006
(lp4016
g104
ag131
aS'bb'
p4017
asI2007
(lp4018
g107
ag2
aS'ma'
p4019
asI2008
(lp4020
g107
ag3
aS'mA'
p4021
asI2009
(lp4022
g107
ag6
aS'mi'
p4023
asI2010
(lp4024
g107
ag9
aS'mI'
p4025
asI2011
(lp4026
g107
ag11
aS'mu'
p4027
asI2012
(lp4028
g107
ag14
aS'mU'
p4029
asI2013
(lp4030
g107
ag16
aS'mf'
p4031
asI2014
(lp4032
g107
ag21
aS'mF'
p4033
asI2015
(lp4034
g107
ag24
aS'mx'
p4035
asI2016
(lp4036
g107
ag7
aS'me'
p4037
asI2017
(lp4038
g107
ag29
aS'mE'
p4039
asI2018
(lp4040
g107
ag12
aS'mo'
p4041
asI2019
(lp4042
g107
ag32
aS'mO'
p4043
asI2020
(lp4044
S'M'
p4045
ag2
aS'Ma'
p4046
asI2021
(lp4047
g4045
ag3
aS'MA'
p4048
asI2022
(lp4049
g4045
ag6
aS'Mi'
p4050
asI2023
(lp4051
g4045
ag9
aS'MI'
p4052
asI2024
(lp4053
g4045
ag11
aS'Mu'
p4054
asI2025
(lp4055
g4045
ag14
aS'MU'
p4056
asI2026
(lp4057
g4045
ag16
aS'Mf'
p4058
asI2027
(lp4059
g4045
ag21
aS'MF'
p4060
asI2028
(lp4061
g4045
ag24
aS'Mx'
p4062
asI2029
(lp4063
g4045
ag7
aS'Me'
p4064
asI2030
(lp4065
g4045
ag29
aS'ME'
p4066
asI2031
(lp4067
g4045
ag12
aS'Mo'
p4068
asI2032
(lp4069
g4045
ag32
aS'MO'
p4070
asI2033
(lp4071
g4045
ag35
aS'Nk'
p4072
asI2034
(lp4073
g4045
ag38
aS'NK'
p4074
asI2035
(lp4075
g4045
ag41
aS'Ng'
p4076
asI2036
(lp4077
g4045
ag44
aS'NG'
p4078
asI2037
(lp4079
g4045
ag47
aS'NN'
p4080
asI2038
(lp4081
g4045
ag50
aS'Yc'
p4082
asI2039
(lp4083
g4045
ag53
aS'YC'
p4084
asI2040
(lp4085
g4045
ag56
aS'Yj'
p4086
asI2041
(lp4087
g4045
ag59
aS'YJ'
p4088
asI2042
(lp4089
g4045
ag62
aS'YY'
p4090
asI2043
(lp4091
g4045
ag65
aS'Rw'
p4092
asI2044
(lp4093
g4045
ag68
aS'RW'
p4094
asI2045
(lp4095
g4045
ag71
aS'Rq'
p4096
asI2046
(lp4097
g4045
ag74
aS'RQ'
p4098
asI2047
(lp4099
g4045
ag77
aS'RR'
p4100
asI2048
(lp4101
g4045
ag80
aS'nt'
p4102
asI2049
(lp4103
g4045
ag83
aS'nT'
p4104
asI2050
(lp4105
g4045
ag86
aS'nd'
p4106
asI2051
(lp4107
g4045
ag89
aS'nD'
p4108
asI2052
(lp4109
g4045
ag92
aS'nn'
p4110
asI2053
(lp4111
g4045
ag95
aS'mp'
p4112
asI2054
(lp4113
g4045
ag98
aS'mP'
p4114
asI2055
(lp4115
g4045
ag101
aS'mb'
p4116
asI2056
(lp4117
g4045
ag104
aS'mB'
p4118
asI2057
(lp4119
g4045
ag107
aS'mm'
p4120
asI2058
(lp4121
g4045
ag110
aS'My'
p4122
asI2059
(lp4123
g4045
ag113
aS'Mr'
p4124
asI2060
(lp4125
g4045
ag116
aS'Ml'
p4126
asI2061
(lp4127
g4045
ag119
aS'Mv'
p4128
asI2062
(lp4129
g4045
ag122
aS'MS'
p4130
asI2063
(lp4131
g4045
ag125
aS'Mz'
p4132
asI2064
(lp4133
g4045
ag128
aS'Ms'
p4134
asI2065
(lp4135
g4045
ag131
aS'Mh'
p4136
asI2066
(lp4137
g110
ag2
aS'ya'
p4138
asI2067
(lp4139
g110
ag3
aS'yA'
p4140
asI2068
(lp4141
g110
ag6
aS'yi'
p4142
asI2069
(lp4143
g110
ag9
aS'yI'
p4144
asI2070
(lp4145
g110
ag11
aS'yu'
p4146
asI2071
(lp4147
g110
ag14
aS'yU'
p4148
asI2072
(lp4149
g110
ag16
aS'yf'
p4150
asI2073
(lp4151
g110
ag21
aS'yF'
p4152
asI2074
(lp4153
g110
ag24
aS'yx'
p4154
asI2075
(lp4155
g110
ag7
aS'ye'
p4156
asI2076
(lp4157
g110
ag29
aS'yE'
p4158
asI2077
(lp4159
g110
ag12
aS'yo'
p4160
asI2078
(lp4161
g110
ag32
aS'yO'
p4162
asI2079
(lp4163
g110
ag35
aS'yk'
p4164
asI2080
(lp4165
g110
ag38
aS'yK'
p4166
asI2081
(lp4167
g110
ag41
aS'yg'
p4168
asI2082
(lp4169
g110
ag44
aS'yG'
p4170
asI2083
(lp4171
g110
ag47
aS'yN'
p4172
asI2084
(lp4173
g110
ag50
aS'yc'
p4174
asI2085
(lp4175
g110
ag53
aS'yC'
p4176
asI2086
(lp4177
g110
ag56
aS'yj'
p4178
asI2087
(lp4179
g110
ag59
aS'yJ'
p4180
asI2088
(lp4181
g110
ag62
aS'yY'
p4182
asI2089
(lp4183
g110
ag65
aS'yw'
p4184
asI2090
(lp4185
g110
ag68
aS'yW'
p4186
asI2091
(lp4187
g110
ag71
aS'yq'
p4188
asI2092
(lp4189
g110
ag74
aS'yQ'
p4190
asI2093
(lp4191
g110
ag92
aS'yn'
p4192
asI2094
(lp4193
g110
ag80
aS'yt'
p4194
asI2095
(lp4195
g110
ag83
aS'yT'
p4196
asI2096
(lp4197
g110
ag86
aS'yd'
p4198
asI2097
(lp4199
g110
ag89
aS'yD'
p4200
asI2098
(lp4201
g110
ag92
aS'yn'
p4202
asI2099
(lp4203
g110
ag95
aS'yp'
p4204
asI2100
(lp4205
g110
ag98
aS'yP'
p4206
asI2101
(lp4207
g110
ag101
aS'yb'
p4208
asI2102
(lp4209
g110
ag104
aS'yB'
p4210
asI2103
(lp4211
g110
ag107
aS'ym'
p4212
asI2104
(lp4213
g110
ag110
aS'yy'
p4214
asI2105
(lp4215
g110
ag113
aS'yr'
p4216
asI2106
(lp4217
g110
ag116
aS'yl'
p4218
asI2107
(lp4219
g110
ag119
aS'yv'
p4220
asI2108
(lp4221
g110
ag122
aS'yS'
p4222
asI2109
(lp4223
g110
ag125
aS'yz'
p4224
asI2110
(lp4225
g110
ag128
aS'ys'
p4226
asI2111
(lp4227
g110
ag131
aS'yh'
p4228
asI2112
(lp4229
S'#r'
p4230
ag2
aS'h a'
p4231
asI2113
(lp4232
S'#r'
p4233
ag2
aS'h a'
p4234
asI2114
(lp4235
S'#r'
p4236
ag6
aS'h i'
p4237
asI2115
(lp4238
S'#r'
p4239
ag6
aS'h i'
p4240
asI2116
(lp4241
S'#r'
p4242
ag11
aS'h u'
p4243
asI2117
(lp4244
S'#r'
p4245
ag11
aS'h u'
p4246
asI2118
(lp4247
S'#r'
p4248
ag16
aS'h f'
p4249
asI2119
(lp4250
S'#r'
p4251
ag16
aS'h f'
p4252
asI2120
(lp4253
S'#r'
p4254
ag116
aS'h l'
p4255
asI2121
(lp4256
S'#r'
p4257
ag7
aS'h e'
p4258
asI2122
(lp4259
S'#r'
p4260
ag7
aS'h e'
p4261
asI2123
(lp4262
S'#r'
p4263
ag12
aS'h o'
p4264
asI2124
(lp4265
S'#r'
p4266
ag12
aS'h o'
p4267
asI2125
(lp4268
S'#r'
p4269
ag35
aS'h k'
p4270
asI2126
(lp4271
S'#r'
p4272
ag35
aS'h k'
p4273
asI2127
(lp4274
S'#r'
p4275
ag41
aS'h g'
p4276
asI2128
(lp4277
S'#r'
p4278
ag41
aS'h g'
p4279
asI2129
(lp4280
S'#r'
p4281
ag47
aS'h N'
p4282
asI2130
(lp4283
S'#r'
p4284
ag50
aS'h c'
p4285
asI2131
(lp4286
S'#r'
p4287
ag50
aS'h c'
p4288
asI2132
(lp4289
S'#r'
p4290
ag56
aS'h j'
p4291
asI2133
(lp4292
S'#r'
p4293
ag56
aS'h j'
p4294
asI2134
(lp4295
S'#r'
p4296
ag47
aS'h N'
p4297
asI2135
(lp4298
S'#r'
p4299
ag65
aS'h w'
p4300
asI2136
(lp4301
S'#r'
p4302
ag65
aS'h w'
p4303
asI2137
(lp4304
S'#r'
p4305
ag71
aS'h q'
p4306
asI2138
(lp4307
S'#r'
p4308
ag71
aS'h q'
p4309
asI2139
(lp4310
S'#r'
p4311
ag92
aS'h n'
p4312
asI2140
(lp4313
S'#r'
p4314
ag80
aS'h t'
p4315
asI2141
(lp4316
S'#r'
p4317
ag80
aS'h t'
p4318
asI2142
(lp4319
S'#r'
p4320
ag86
aS'h d'
p4321
asI2143
(lp4322
S'#r'
p4323
ag86
aS'h d'
p4324
asI2144
(lp4325
S'#r'
p4326
ag92
aS'h n'
p4327
asI2145
(lp4328
S'#r'
p4329
ag95
aS'h p'
p4330
asI2146
(lp4331
S'#r'
p4332
ag95
aS'h p'
p4333
asI2147
(lp4334
S'#r'
p4335
ag101
aS'h b'
p4336
asI2148
(lp4337
S'#r'
p4338
ag101
aS'h b'
p4339
asI2149
(lp4340
S'#r'
p4341
ag107
aS'h m'
p4342
asI2150
(lp4343
S'#r'
p4344
ag110
aS'h y'
p4345
asI2151
(lp4346
S'ar'
p4347
ag113
aS'A r'
p4348
asI2152
(lp4349
S'ur'
p4350
ag113
aS'U r'
p4351
asI2153
(lp4352
S'ir'
p4353
ag113
aS'I r'
p4354
asI2154
(lp4355
S'Ar'
p4356
ag113
aS'A r'
p4357
asI2155
(lp4358
S'Ur'
p4359
ag113
aS'U r'
p4360
asI2156
(lp4361
S'Ir'
p4362
ag113
aS'I r'
p4363
asI2157
(lp4364
S'#r'
p4365
ag116
aS'h l'
p4366
asI2158
(lp4367
S'#r'
p4368
ag119
aS'h v'
p4369
asI2159
(lp4370
S'#r'
p4371
ag128
aS'h s'
p4372
asI2160
(lp4373
S'#r'
p4374
ag113
aS'h r'
p4375
asI2161
(lp4376
S'#r'
p4377
ag128
aS'h s'
p4378
asI2162
(lp4379
S'#r'
p4380
ag131
aS'h h'
p4381
asI2163
(lp4382
g116
ag2
aS'la'
p4383
asI2164
(lp4384
g116
ag3
aS'lA'
p4385
asI2165
(lp4386
g116
ag6
aS'li'
p4387
asI2166
(lp4388
g116
ag9
aS'lI'
p4389
asI2167
(lp4390
g116
ag11
aS'lu'
p4391
asI2168
(lp4392
g116
ag14
aS'lU'
p4393
asI2169
(lp4394
g116
ag16
aS'lf'
p4395
asI2170
(lp4396
g116
ag21
aS'lF'
p4397
asI2171
(lp4398
g116
ag24
aS'lx'
p4399
asI2172
(lp4400
g116
ag7
aS'le'
p4401
asI2173
(lp4402
g116
ag29
aS'lE'
p4403
asI2174
(lp4404
g116
ag12
aS'lo'
p4405
asI2175
(lp4406
g116
ag32
aS'lO'
p4407
asI2176
(lp4408
g116
ag35
aS'lk'
p4409
asI2177
(lp4410
g116
ag38
aS'lK'
p4411
asI2178
(lp4412
g116
ag41
aS'lg'
p4413
asI2179
(lp4414
g116
ag44
aS'lG'
p4415
asI2180
(lp4416
g116
ag47
aS'lN'
p4417
asI2181
(lp4418
g116
ag50
aS'lc'
p4419
asI2182
(lp4420
g116
ag53
aS'lC'
p4421
asI2183
(lp4422
g116
ag56
aS'lj'
p4423
asI2184
(lp4424
g116
ag59
aS'lJ'
p4425
asI2185
(lp4426
g116
ag62
aS'lY'
p4427
asI2186
(lp4428
g116
ag65
aS'lw'
p4429
asI2187
(lp4430
g116
ag68
aS'lW'
p4431
asI2188
(lp4432
g116
ag71
aS'lq'
p4433
asI2189
(lp4434
g116
ag74
aS'lQ'
p4435
asI2190
(lp4436
g116
ag77
aS'lR'
p4437
asI2191
(lp4438
g116
ag80
aS'lt'
p4439
asI2192
(lp4440
g116
ag83
aS'lT'
p4441
asI2193
(lp4442
g116
ag86
aS'ld'
p4443
asI2194
(lp4444
g116
ag89
aS'lD'
p4445
asI2195
(lp4446
g116
ag92
aS'ln'
p4447
asI2196
(lp4448
g116
ag95
aS'lp'
p4449
asI2197
(lp4450
g116
ag98
aS'lP'
p4451
asI2198
(lp4452
g116
ag101
aS'lb'
p4453
asI2199
(lp4454
g116
ag104
aS'lB'
p4455
asI2200
(lp4456
g116
ag107
aS'lm'
p4457
asI2201
(lp4458
g116
ag110
aS'ly'
p4459
asI2202
(lp4460
g116
ag113
aS'lr'
p4461
asI2203
(lp4462
g116
ag116
aS'll'
p4463
asI2204
(lp4464
g116
ag119
aS'lv'
p4465
asI2205
(lp4466
g116
ag122
aS'lS'
p4467
asI2206
(lp4468
g116
ag125
aS'lz'
p4469
asI2207
(lp4470
g116
ag128
aS'ls'
p4471
asI2208
(lp4472
g116
ag131
aS'lh'
p4473
asI2209
(lp4474
g119
ag2
aS'va'
p4475
asI2210
(lp4476
g119
ag3
aS'vA'
p4477
asI2211
(lp4478
g119
ag6
aS'vi'
p4479
asI2212
(lp4480
g119
ag9
aS'vI'
p4481
asI2213
(lp4482
g119
ag11
aS'vu'
p4483
asI2214
(lp4484
g119
ag14
aS'vU'
p4485
asI2215
(lp4486
g119
ag16
aS'vf'
p4487
asI2216
(lp4488
g119
ag21
aS'vF'
p4489
asI2217
(lp4490
g119
ag24
aS'vx'
p4491
asI2218
(lp4492
g119
ag7
aS've'
p4493
asI2219
(lp4494
g119
ag29
aS'vE'
p4495
asI2220
(lp4496
g119
ag12
aS'vo'
p4497
asI2221
(lp4498
g119
ag32
aS'vO'
p4499
asI2222
(lp4500
g119
ag35
aS'vk'
p4501
asI2223
(lp4502
g119
ag38
aS'vK'
p4503
asI2224
(lp4504
g119
ag41
aS'vg'
p4505
asI2225
(lp4506
g119
ag44
aS'vG'
p4507
asI2226
(lp4508
g119
ag47
aS'vN'
p4509
asI2227
(lp4510
g119
ag50
aS'vc'
p4511
asI2228
(lp4512
g119
ag53
aS'vC'
p4513
asI2229
(lp4514
g119
ag56
aS'vj'
p4515
asI2230
(lp4516
g119
ag59
aS'vJ'
p4517
asI2231
(lp4518
g119
ag62
aS'vY'
p4519
asI2232
(lp4520
g119
ag65
aS'vw'
p4521
asI2233
(lp4522
g119
ag68
aS'vW'
p4523
asI2234
(lp4524
g119
ag71
aS'vq'
p4525
asI2235
(lp4526
g119
ag74
aS'vQ'
p4527
asI2236
(lp4528
g119
ag77
aS'vR'
p4529
asI2237
(lp4530
g119
ag80
aS'vt'
p4531
asI2238
(lp4532
g119
ag83
aS'vT'
p4533
asI2239
(lp4534
g119
ag86
aS'vd'
p4535
asI2240
(lp4536
g119
ag89
aS'vD'
p4537
asI2241
(lp4538
g119
ag92
aS'vn'
p4539
asI2242
(lp4540
g119
ag95
aS'vp'
p4541
asI2243
(lp4542
g119
ag98
aS'vP'
p4543
asI2244
(lp4544
g119
ag101
aS'vb'
p4545
asI2245
(lp4546
g119
ag104
aS'vB'
p4547
asI2246
(lp4548
g119
ag107
aS'vm'
p4549
asI2247
(lp4550
g119
ag110
aS'vy'
p4551
asI2248
(lp4552
g119
ag113
aS'vr'
p4553
asI2249
(lp4554
g119
ag116
aS'vl'
p4555
asI2250
(lp4556
g119
ag119
aS'vv'
p4557
asI2251
(lp4558
g119
ag122
aS'vS'
p4559
asI2252
(lp4560
g119
ag125
aS'vz'
p4561
asI2253
(lp4562
g119
ag128
aS'vs'
p4563
asI2254
(lp4564
g119
ag131
aS'vh'
p4565
asI2255
(lp4566
g122
ag2
aS'ja'
p4567
asI2256
(lp4568
g122
ag3
aS'jA'
p4569
asI2257
(lp4570
g122
ag6
aS'ji'
p4571
asI2258
(lp4572
g122
ag9
aS'jI'
p4573
asI2259
(lp4574
g122
ag11
aS'ju'
p4575
asI2260
(lp4576
g122
ag14
aS'jU'
p4577
asI2261
(lp4578
g122
ag16
aS'jf'
p4579
asI2262
(lp4580
g122
ag21
aS'jF'
p4581
asI2263
(lp4582
g122
ag24
aS'jx'
p4583
asI2264
(lp4584
g122
ag7
aS'je'
p4585
asI2265
(lp4586
g122
ag29
aS'jE'
p4587
asI2266
(lp4588
g122
ag12
aS'jo'
p4589
asI2267
(lp4590
g122
ag32
aS'jO'
p4591
asI2268
(lp4592
g122
ag35
aS'ck'
p4593
asI2269
(lp4594
g122
ag38
aS'cK'
p4595
asI2270
(lp4596
g122
ag41
aS'jg'
p4597
asI2271
(lp4598
g122
ag44
aS'jG'
p4599
asI2272
(lp4600
g122
ag47
aS'jN'
p4601
asI2273
(lp4602
g122
ag50
aS'cc'
p4603
asI2274
(lp4604
g122
ag53
aS'cC'
p4605
asI2275
(lp4606
g122
ag56
aS'jj'
p4607
asI2276
(lp4608
g122
ag59
aS'jJ'
p4609
asI2277
(lp4610
g122
ag62
aS'jY'
p4611
asI2278
(lp4612
g122
ag65
aS'cw'
p4613
asI2279
(lp4614
g122
ag68
aS'cW'
p4615
asI2280
(lp4616
g122
ag71
aS'jq'
p4617
asI2281
(lp4618
g122
ag74
aS'jQ'
p4619
asI2282
(lp4620
g122
ag77
aS'jR'
p4621
asI2283
(lp4622
g122
ag77
aS'YR'
p4623
asI2284
(lp4624
g122
ag80
aS'ct'
p4625
asI2285
(lp4626
g122
ag83
aS'cT'
p4627
asI2286
(lp4628
g122
ag86
aS'jd'
p4629
asI2287
(lp4630
g122
ag89
aS'jD'
p4631
asI2288
(lp4632
g122
ag92
aS'jn'
p4633
asI2289
(lp4634
g122
ag92
aS'Yn'
p4635
asI2290
(lp4636
g122
ag95
aS'cp'
p4637
asI2291
(lp4638
g122
ag98
aS'cP'
p4639
asI2292
(lp4640
g122
ag101
aS'jb'
p4641
asI2293
(lp4642
g122
ag104
aS'jB'
p4643
asI2294
(lp4644
g122
ag107
aS'jm'
p4645
asI2295
(lp4646
g122
ag110
aS'jy'
p4647
asI2296
(lp4648
g122
ag113
aS'jr'
p4649
asI2297
(lp4650
g122
ag116
aS'jl'
p4651
asI2298
(lp4652
g122
ag119
aS'jv'
p4653
asI2299
(lp4654
g122
ag122
aS'zS'
p4655
asI2300
(lp4656
g122
ag125
aS'cz'
p4657
asI2301
(lp4658
g122
ag128
aS'cs'
p4659
asI2302
(lp4660
g122
ag131
aS'jh'
p4661
asI2303
(lp4662
g122
ag131
aS'jJ'
p4663
asI2304
(lp4664
g125
ag2
aS'qa'
p4665
asI2305
(lp4666
g125
ag3
aS'qA'
p4667
asI2306
(lp4668
g125
ag6
aS'qi'
p4669
asI2307
(lp4670
g125
ag9
aS'qI'
p4671
asI2308
(lp4672
g125
ag11
aS'qu'
p4673
asI2309
(lp4674
g125
ag14
aS'qU'
p4675
asI2310
(lp4676
g125
ag16
aS'qf'
p4677
asI2311
(lp4678
g125
ag21
aS'qF'
p4679
asI2312
(lp4680
g125
ag24
aS'qx'
p4681
asI2313
(lp4682
g125
ag7
aS'qe'
p4683
asI2314
(lp4684
g125
ag29
aS'qE'
p4685
asI2315
(lp4686
g125
ag12
aS'qo'
p4687
asI2316
(lp4688
g125
ag32
aS'qO'
p4689
asI2317
(lp4690
g125
ag35
aS'wk'
p4691
asI2318
(lp4692
g125
ag38
aS'wK'
p4693
asI2319
(lp4694
g125
ag41
aS'qg'
p4695
asI2320
(lp4696
g125
ag44
aS'qG'
p4697
asI2321
(lp4698
g125
ag47
aS'qN'
p4699
asI2322
(lp4700
g125
ag50
aS'wc'
p4701
asI2323
(lp4702
g125
ag53
aS'wC'
p4703
asI2324
(lp4704
g125
ag56
aS'qj'
p4705
asI2325
(lp4706
g125
ag59
aS'qJ'
p4707
asI2326
(lp4708
g125
ag62
aS'qY'
p4709
asI2327
(lp4710
g125
ag65
aS'ww'
p4711
asI2328
(lp4712
g125
ag68
aS'wW'
p4713
asI2329
(lp4714
g125
ag71
aS'qq'
p4715
asI2330
(lp4716
g125
ag74
aS'qQ'
p4717
asI2331
(lp4718
g125
ag77
aS'qR'
p4719
asI2332
(lp4720
g125
ag77
aS'RR'
p4721
asI2333
(lp4722
g125
ag80
aS'wt'
p4723
asI2334
(lp4724
g125
ag83
aS'wT'
p4725
asI2335
(lp4726
g125
ag86
aS'qd'
p4727
asI2336
(lp4728
g125
ag89
aS'qD'
p4729
asI2337
(lp4730
g125
ag92
aS'qn'
p4731
asI2338
(lp4732
g125
ag92
aS'Rn'
p4733
asI2339
(lp4734
g125
ag95
aS'wp'
p4735
asI2340
(lp4736
g125
ag98
aS'wP'
p4737
asI2341
(lp4738
g125
ag101
aS'qb'
p4739
asI2342
(lp4740
g125
ag104
aS'qB'
p4741
asI2343
(lp4742
g125
ag107
aS'qm'
p4743
asI2344
(lp4744
g125
ag107
aS'Rm'
p4745
asI2345
(lp4746
g125
ag110
aS'qy'
p4747
asI2346
(lp4748
g125
ag113
aS'qr'
p4749
asI2347
(lp4750
g125
ag116
aS'ql'
p4751
asI2348
(lp4752
g125
ag119
aS'qv'
p4753
asI2349
(lp4754
g125
ag122
aS'zS'
p4755
asI2350
(lp4756
g125
ag125
aS'wz'
p4757
asI2351
(lp4758
g125
ag128
aS'ws'
p4759
asI2352
(lp4760
g125
ag131
aS'qQ'
p4761
asI2353
(lp4762
g125
ag131
aS'qh'
p4763
asI2355
(lp4764
g128
ag2
aS'H a'
p4765
asI2356
(lp4766
S'as'
p4767
ag2
aS"o'"
p4768
asI2357
(lp4769
g128
ag3
aS'H A'
p4770
asI2358
(lp4771
g128
ag6
aS'H i'
p4772
asI2359
(lp4773
g128
ag9
aS'H I'
p4774
asI2360
(lp4775
g128
ag11
aS'H u'
p4776
asI2361
(lp4777
g128
ag14
aS'H U'
p4778
asI2362
(lp4779
g128
ag16
aS'H f'
p4780
asI2363
(lp4781
g128
ag21
aS'H F'
p4782
asI2364
(lp4783
g128
ag24
aS'H x'
p4784
asI2365
(lp4785
g128
ag7
aS'H e'
p4786
asI2366
(lp4787
g128
ag29
aS'H E'
p4788
asI2367
(lp4789
g128
ag12
aS'H o'
p4790
asI2368
(lp4791
g128
ag32
aS'H O'
p4792
asI2369
(lp4793
g128
ag35
aS'H k'
p4794
asI2370
(lp4795
g128
ag38
aS'H K'
p4796
asI2371
(lp4797
g128
ag41
aS'H g'
p4798
asI2372
(lp4799
g128
ag41
aS'rg'
p4800
asI2373
(lp4801
g128
ag44
aS'H G'
p4802
asI2374
(lp4803
g128
ag44
aS'rG'
p4804
asI2375
(lp4805
g128
ag47
aS'H N'
p4806
asI2376
(lp4807
g128
ag47
aS'r N'
p4808
asI2377
(lp4809
g128
ag50
aS'Sc'
p4810
asI2378
(lp4811
g128
ag53
aS'SC'
p4812
asI2379
(lp4813
g128
ag56
aS'Sj'
p4814
asI2380
(lp4815
g128
ag59
aS'SJ'
p4816
asI2381
(lp4817
g128
ag62
aS'SY'
p4818
asI2382
(lp4819
g128
ag65
aS'zw'
p4820
asI2383
(lp4821
g128
ag68
aS'zW'
p4822
asI2384
(lp4823
g128
ag71
aS'zq'
p4824
asI2385
(lp4825
g128
ag74
aS'zQ'
p4826
asI2386
(lp4827
g128
ag77
aS'zR'
p4828
asI2387
(lp4829
g128
ag80
aS'H t'
p4830
asI2388
(lp4831
g128
ag83
aS'H T'
p4832
asI2389
(lp4833
g128
ag86
aS'H d'
p4834
asI2390
(lp4835
g128
ag86
aS'rd'
p4836
asI2391
(lp4837
g128
ag89
aS'H D'
p4838
asI2392
(lp4839
g128
ag89
aS'rD'
p4840
asI2393
(lp4841
g128
ag92
aS'H n'
p4842
asI2394
(lp4843
g128
ag92
aS'rn'
p4844
asI2395
(lp4845
g128
ag95
aS'H p'
p4846
asI2396
(lp4847
g128
ag98
aS'H P'
p4848
asI2397
(lp4849
g128
ag101
aS'H b'
p4850
asI2398
(lp4851
g128
ag101
aS'rb'
p4852
asI2399
(lp4853
g128
ag104
aS'H B'
p4854
asI2400
(lp4855
g128
ag104
aS'rB'
p4856
asI2401
(lp4857
g128
ag107
aS'H m'
p4858
asI2402
(lp4859
g128
ag107
aS'rm'
p4860
asI2403
(lp4861
g128
ag110
aS'H y'
p4862
asI2404
(lp4863
g128
ag110
aS'ry'
p4864
asI2405
(lp4865
g128
ag113
aS'H r'
p4866
asI2406
(lp4867
g128
ag113
aS'rr'
p4868
asI2407
(lp4869
g128
ag116
aS'H l'
p4870
asI2408
(lp4871
g128
ag116
aS'rl'
p4872
asI2409
(lp4873
g128
ag119
aS'H v'
p4874
asI2410
(lp4875
g128
ag119
aS'rv'
p4876
asI2411
(lp4877
g128
ag122
aS'SS'
p4878
asI2412
(lp4879
g128
ag125
aS'zz'
p4880
asI2413
(lp4881
g128
ag128
aS'H s'
p4882
asI2414
(lp4883
g128
ag131
aS'H h'
p4884
asI2415
(lp4885
g128
ag131
aS'rh'
p4886
asI2416
(lp4887
g131
ag2
aS'ha'
p4888
asI2417
(lp4889
g131
ag3
aS'hA'
p4890
asI2418
(lp4891
g131
ag6
aS'hi'
p4892
asI2419
(lp4893
g131
ag9
aS'hI'
p4894
asI2420
(lp4895
g131
ag11
aS'hu'
p4896
asI2421
(lp4897
g131
ag14
aS'hU'
p4898
asI2422
(lp4899
g131
ag16
aS'hf'
p4900
asI2423
(lp4901
g131
ag21
aS'hF'
p4902
asI2424
(lp4903
g131
ag24
aS'hx'
p4904
asI2425
(lp4905
g131
ag7
aS'he'
p4906
asI2426
(lp4907
g131
ag29
aS'hE'
p4908
asI2427
(lp4909
g131
ag12
aS'ho'
p4910
asI2428
(lp4911
g131
ag32
aS'hO'
p4912
asI2429
(lp4913
g131
ag35
aS'hk'
p4914
asI2430
(lp4915
g131
ag38
aS'hK'
p4916
asI2431
(lp4917
g131
ag41
aS'hg'
p4918
asI2432
(lp4919
g131
ag44
aS'hG'
p4920
asI2433
(lp4921
g131
ag47
aS'hN'
p4922
asI2434
(lp4923
g131
ag50
aS'hc'
p4924
asI2435
(lp4925
g131
ag53
aS'hC'
p4926
asI2436
(lp4927
g131
ag56
aS'hj'
p4928
asI2437
(lp4929
g131
ag59
aS'hJ'
p4930
asI2438
(lp4931
g131
ag62
aS'hY'
p4932
asI2439
(lp4933
g131
ag65
aS'hw'
p4934
asI2440
(lp4935
g131
ag68
aS'hW'
p4936
asI2441
(lp4937
g131
ag71
aS'hq'
p4938
asI2442
(lp4939
g131
ag74
aS'hQ'
p4940
asI2443
(lp4941
g131
ag77
aS'hR'
p4942
asI2444
(lp4943
g131
ag80
aS'ht'
p4944
asI2445
(lp4945
g131
ag83
aS'hT'
p4946
asI2446
(lp4947
g131
ag86
aS'hd'
p4948
asI2447
(lp4949
g131
ag89
aS'hD'
p4950
asI2448
(lp4951
g131
ag92
aS'hn'
p4952
asI2449
(lp4953
g131
ag95
aS'hp'
p4954
asI2450
(lp4955
g131
ag98
aS'hP'
p4956
asI2451
(lp4957
g131
ag101
aS'hb'
p4958
asI2452
(lp4959
g131
ag104
aS'hB'
p4960
asI2453
(lp4961
g131
ag107
aS'hm'
p4962
asI2454
(lp4963
g131
ag110
aS'hy'
p4964
asI2455
(lp4965
g131
ag113
aS'hr'
p4966
asI2456
(lp4967
g131
ag116
aS'hl'
p4968
asI2457
(lp4969
g131
ag119
aS'hv'
p4970
asI2458
(lp4971
g131
ag122
aS'hS'
p4972
asI2459
(lp4973
g131
ag125
aS'hz'
p4974
asI2460
(lp4975
g131
ag128
aS'hs'
p4976
asI2461
(lp4977
g131
ag131
aS'hh'
p4978
asI2462
(lp4979
S'aH'
p4980
ag2
aS"o'"
p4981
asI2463
(lp4982
S'aH'
p4983
ag3
aS'a A'
p4984
asI2464
(lp4985
S'aH'
p4986
ag3
aS'ayA'
p4987
asI2465
(lp4988
S'aH'
p4989
ag6
aS'a i'
p4990
asI2466
(lp4991
S'aH'
p4992
ag6
aS'ayi'
p4993
asI2467
(lp4994
S'aH'
p4995
ag9
aS'a I'
p4996
asI2468
(lp4997
S'aH'
p4998
ag9
aS'ayI'
p4999
asI2469
(lp5000
S'aH'
p5001
ag11
aS'a u'
p5002
asI2470
(lp5003
S'aH'
p5004
ag11
aS'ayu'
p5005
asI2471
(lp5006
S'aH'
p5007
ag14
aS'a U'
p5008
asI2472
(lp5009
S'aH'
p5010
ag14
aS'ayU'
p5011
asI2473
(lp5012
S'aH'
p5013
ag16
aS'a f'
p5014
asI2474
(lp5015
S'aH'
p5016
ag16
aS'ayf'
p5017
asI2475
(lp5018
S'aH'
p5019
ag21
aS'a F'
p5020
asI2476
(lp5021
S'aH'
p5022
ag21
aS'ayF'
p5023
asI2477
(lp5024
S'aH'
p5025
ag24
aS'a x'
p5026
asI2478
(lp5027
S'aH'
p5028
ag24
aS'ayx'
p5029
asI2479
(lp5030
S'aH'
p5031
ag7
aS'a e'
p5032
asI2480
(lp5033
S'aH'
p5034
ag7
aS'aye'
p5035
asI2481
(lp5036
S'aH'
p5037
ag29
aS'a E'
p5038
asI2482
(lp5039
S'aH'
p5040
ag29
aS'ayE'
p5041
asI2483
(lp5042
S'aH'
p5043
ag12
aS'a o'
p5044
asI2484
(lp5045
S'aH'
p5046
ag12
aS'ayo'
p5047
asI2485
(lp5048
S'aH'
p5049
ag32
aS'a O'
p5050
asI2486
(lp5051
S'aH'
p5052
ag32
aS'ayO'
p5053
asI2487
(lp5054
S'aH'
p5055
ag122
aS'aSS'
p5056
asI2488
(lp5057
S'aH'
p5058
ag122
aS'aH S'
p5059
asI2489
(lp5060
S'aH'
p5061
ag125
aS'azz'
p5062
asI2490
(lp5063
S'aH'
p5064
ag125
aS'aH z'
p5065
asI2491
(lp5066
S'aH'
p5067
ag128
aS'ass'
p5068
asI2492
(lp5069
S'aH'
p5070
ag128
aS'aH s'
p5071
asI2493
(lp5072
S'AH'
p5073
ag2
aS'A a'
p5074
asI2494
(lp5075
S'AH'
p5076
ag2
aS'Aya'
p5077
asI2495
(lp5078
S'AH'
p5079
ag3
aS'A A'
p5080
asI2496
(lp5081
S'AH'
p5082
ag3
aS'AyA'
p5083
asI2497
(lp5084
S'AH'
p5085
ag6
aS'A i'
p5086
asI2498
(lp5087
S'AH'
p5088
ag6
aS'Ayi'
p5089
asI2499
(lp5090
S'AH'
p5091
ag9
aS'A I'
p5092
asI2500
(lp5093
S'AH'
p5094
ag9
aS'AyI'
p5095
asI2501
(lp5096
S'AH'
p5097
ag11
aS'A u'
p5098
asI2502
(lp5099
S'AH'
p5100
ag11
aS'Ayu'
p5101
asI2503
(lp5102
S'AH'
p5103
ag14
aS'A U'
p5104
asI2504
(lp5105
S'AH'
p5106
ag14
aS'AyU'
p5107
asI2505
(lp5108
S'AH'
p5109
ag16
aS'A f'
p5110
asI2506
(lp5111
S'AH'
p5112
ag16
aS'Ayf'
p5113
asI2507
(lp5114
S'AH'
p5115
ag21
aS'A F'
p5116
asI2508
(lp5117
S'AH'
p5118
ag21
aS'AyF'
p5119
asI2509
(lp5120
S'AH'
p5121
ag24
aS'A x'
p5122
asI2510
(lp5123
S'AH'
p5124
ag24
aS'Ayx'
p5125
asI2511
(lp5126
S'AH'
p5127
ag7
aS'A e'
p5128
asI2512
(lp5129
S'AH'
p5130
ag7
aS'Aye'
p5131
asI2513
(lp5132
S'AH'
p5133
ag29
aS'A E'
p5134
asI2514
(lp5135
S'AH'
p5136
ag29
aS'AyE'
p5137
asI2515
(lp5138
S'AH'
p5139
ag12
aS'A o'
p5140
asI2516
(lp5141
S'AH'
p5142
ag12
aS'Ayo'
p5143
asI2517
(lp5144
S'AH'
p5145
ag32
aS'A O'
p5146
asI2518
(lp5147
S'AH'
p5148
ag32
aS'AyO'
p5149
asI2519
(lp5150
S'AH'
p5151
ag122
aS'ASS'
p5152
asI2520
(lp5153
S'AH'
p5154
ag122
aS'AH S'
p5155
asI2521
(lp5156
S'AH'
p5157
ag125
aS'Azz'
p5158
asI2522
(lp5159
S'AH'
p5160
ag125
aS'AH z'
p5161
asI2523
(lp5162
S'AH'
p5163
ag128
aS'Ass'
p5164
asI2524
(lp5165
S'AH'
p5166
ag128
aS'AH s'
p5167
asI2525
(lp5168
S'iH'
p5169
ag113
aS'I r'
p5170
asI2526
(lp5171
S'iH'
p5172
ag122
aS'iSS'
p5173
asI2527
(lp5174
S'iH'
p5175
ag122
aS'iH S'
p5176
asI2528
(lp5177
S'iH'
p5178
ag125
aS'izz'
p5179
asI2529
(lp5180
S'iH'
p5181
ag125
aS'iH z'
p5182
asI2530
(lp5183
S'iH'
p5184
ag128
aS'iss'
p5185
asI2531
(lp5186
S'iH'
p5187
ag128
aS'iH s'
p5188
asI2532
(lp5189
S'IH'
p5190
ag113
aS'I r'
p5191
asI2533
(lp5192
S'IH'
p5193
ag122
aS'ISS'
p5194
asI2534
(lp5195
S'IH'
p5196
ag122
aS'IH S'
p5197
asI2535
(lp5198
S'IH'
p5199
ag125
aS'Izz'
p5200
asI2536
(lp5201
S'IH'
p5202
ag125
aS'IH z'
p5203
asI2537
(lp5204
S'IH'
p5205
ag128
aS'Iss'
p5206
asI2538
(lp5207
S'IH'
p5208
ag128
aS'IH s'
p5209
asI2539
(lp5210
S'uH'
p5211
ag113
aS'U r'
p5212
asI2540
(lp5213
S'uH'
p5214
ag122
aS'uSS'
p5215
asI2541
(lp5216
S'uH'
p5217
ag122
aS'uH S'
p5218
asI2542
(lp5219
S'uH'
p5220
ag125
aS'uzz'
p5221
asI2543
(lp5222
S'uH'
p5223
ag125
aS'uH z'
p5224
asI2544
(lp5225
S'uH'
p5226
ag128
aS'uss'
p5227
asI2545
(lp5228
S'uH'
p5229
ag128
aS'uH s'
p5230
asI2546
(lp5231
S'UH'
p5232
ag113
aS'U r'
p5233
asI2547
(lp5234
S'UH'
p5235
ag122
aS'USS'
p5236
asI2548
(lp5237
S'UH'
p5238
ag122
aS'UH S'
p5239
asI2549
(lp5240
S'UH'
p5241
ag125
aS'Uzz'
p5242
asI2550
(lp5243
S'UH'
p5244
ag125
aS'UH z'
p5245
asI2551
(lp5246
S'UH'
p5247
ag128
aS'Uss'
p5248
asI2552
(lp5249
S'UH'
p5250
ag128
aS'UH s'
p5251
asI2553
(lp5252
S'fH'
p5253
ag113
aS'frr'
p5254
asI2554
(lp5255
S'fH'
p5256
ag122
aS'fSS'
p5257
asI2555
(lp5258
S'fH'
p5259
ag122
aS'fH S'
p5260
asI2556
(lp5261
S'fH'
p5262
ag125
aS'fzz'
p5263
asI2557
(lp5264
S'fH'
p5265
ag125
aS'fH z'
p5266
asI2558
(lp5267
S'fH'
p5268
ag128
aS'fss'
p5269
asI2559
(lp5270
S'fH'
p5271
ag128
aS'fH s'
p5272
asI2560
(lp5273
S'FH'
p5274
ag113
aS'Frr'
p5275
asI2561
(lp5276
S'FH'
p5277
ag122
aS'FSS'
p5278
asI2562
(lp5279
S'FH'
p5280
ag122
aS'FH S'
p5281
asI2563
(lp5282
S'FH'
p5283
ag125
aS'Fzz'
p5284
asI2564
(lp5285
S'FH'
p5286
ag125
aS'FH z'
p5287
asI2565
(lp5288
S'FH'
p5289
ag128
aS'Fss'
p5290
asI2566
(lp5291
S'FH'
p5292
ag128
aS'FH s'
p5293
asI2567
(lp5294
S'FH'
p5295
ag131
aS'Frh'
p5296
asI2568
(lp5297
S'xH'
p5298
ag113
aS'xrr'
p5299
asI2569
(lp5300
S'xH'
p5301
ag122
aS'xSS'
p5302
asI2570
(lp5303
S'xH'
p5304
ag122
aS'xH S'
p5305
asI2571
(lp5306
S'xH'
p5307
ag125
aS'xzz'
p5308
asI2572
(lp5309
S'xH'
p5310
ag125
aS'xH z'
p5311
asI2573
(lp5312
S'xH'
p5313
ag128
aS'xss'
p5314
asI2574
(lp5315
S'xH'
p5316
ag128
aS'xH s'
p5317
asI2575
(lp5318
S'eH'
p5319
ag113
aS'err'
p5320
asI2576
(lp5321
S'eH'
p5322
ag122
aS'eSS'
p5323
asI2577
(lp5324
S'eH'
p5325
ag122
aS'eH S'
p5326
asI2578
(lp5327
S'eH'
p5328
ag125
aS'ezz'
p5329
asI2579
(lp5330
S'eH'
p5331
ag125
aS'eH z'
p5332
asI2580
(lp5333
S'eH'
p5334
ag128
aS'ess'
p5335
asI2581
(lp5336
S'eH'
p5337
ag128
aS'eH s'
p5338
asI2582
(lp5339
S'oH'
p5340
ag113
aS'orr'
p5341
asI2583
(lp5342
S'oH'
p5343
ag122
aS'oSS'
p5344
asI2584
(lp5345
S'oH'
p5346
ag122
aS'oH S'
p5347
asI2585
(lp5348
S'oH'
p5349
ag125
aS'ozz'
p5350
asI2586
(lp5351
S'oH'
p5352
ag125
aS'oH z'
p5353
asI2587
(lp5354
S'oH'
p5355
ag128
aS'oss'
p5356
asI2588
(lp5357
S'oH'
p5358
ag128
aS'oH s'
p5359
asI2589
(lp5360
S'EH'
p5361
ag113
aS'Err'
p5362
asI2590
(lp5363
S'EH'
p5364
ag122
aS'ESS'
p5365
asI2591
(lp5366
S'EH'
p5367
ag122
aS'EH S'
p5368
asI2592
(lp5369
S'EH'
p5370
ag125
aS'Ezz'
p5371
asI2593
(lp5372
S'EH'
p5373
ag125
aS'EH z'
p5374
asI2594
(lp5375
S'EH'
p5376
ag128
aS'Ess'
p5377
asI2595
(lp5378
S'EH'
p5379
ag128
aS'EH s'
p5380
asI2596
(lp5381
S'OH'
p5382
ag113
aS'Orr'
p5383
asI2597
(lp5384
S'OH'
p5385
ag122
aS'OSS'
p5386
asI2598
(lp5387
S'OH'
p5388
ag122
aS'OH S'
p5389
asI2599
(lp5390
S'OH'
p5391
ag125
aS'Ozz'
p5392
asI2600
(lp5393
S'OH'
p5394
ag125
aS'OH z'
p5395
asI2601
(lp5396
S'OH'
p5397
ag128
aS'Oss'
p5398
asI2602
(lp5399
S'OH'
p5400
ag128
aS'OH s'
p5401
asI2603
(lp5402
S'H'
p5403
ag35
aS'><k'
p5404
asI2604
(lp5405
g5403
ag35
aS'H k'
p5406
asI2605
(lp5407
g5403
ag38
aS'><K'
p5408
asI2606
(lp5409
g5403
ag38
aS'H K'
p5410
asI2607
(lp5411
g5403
ag95
aS'><p'
p5412
asI2608
(lp5413
g5403
ag95
aS'H p'
p5414
asI2609
(lp5415
g5403
ag98
aS'><P'
p5416
asI2610
(lp5417
g5403
ag98
aS'H P'
p5418
as.